;
; File generated by cc65 v 2.19 - Git 1406346
;
	.fopt		compiler,"cc65 v 2.19 - Git 1406346"
	.setcpu		"6502"
	.smart		on
	.autoimport	on
	.case		on
	.debuginfo	off
	.importzp	sp, sreg, regsave, regbank
	.importzp	tmp1, tmp2, tmp3, tmp4, ptr1, ptr2, ptr3, ptr4
	.macpack	longbranch
	.forceimport	__STARTUP__
	.import		_pal_bg
	.import		_pal_spr
	.import		_pal_col
	.import		_pal_clear
	.import		_pal_bright
	.import		_ppu_wait_nmi
	.import		_ppu_off
	.import		_ppu_on_all
	.import		_oam_clear
	.import		_oam_spr
	.import		_oam_meta_spr
	.import		_oam_get
	.import		_music_play
	.import		_music_stop
	.import		_sfx_play
	.import		_pad_poll
	.import		_bank_spr
	.import		_vram_adr
	.import		_vram_put
	.import		_vram_fill
	.import		_vram_unrle
	.import		_memcpy
	.import		_delay
	.import		_set_vram_buffer
	.import		_one_vram_buffer
	.import		_multi_vram_buffer_horz
	.import		_clear_vram_buffer
	.import		_get_pad_new
	.import		_get_frame_count
	.import		_set_music_speed
	.import		_check_collision
	.import		_pal_fade_to
	.import		_set_scroll_x
	.import		_set_scroll_y
	.import		_get_ppu_addr
	.import		_set_data_pointer
	.import		_set_mt_pointer
	.import		_buffer_4_mt
	.import		_flush_vram_update2
	.import		_color_emphasis
	.export		_mmc1_write
	.export		_mmc1_init
	.export		_setup_pattern_tables
	.export		_fade_in_palette
	.export		_fade_out_palette
	.export		_create_sprite
	.export		_update_sprite_pos
	.export		_draw_border
	.export		_NinjaSprL
	.export		_NinjaSprR
	.export		_CoinSpr
	.export		_CornSelectedSpr
	.export		_BigCoinSpr
	.export		_CoinHud
	.export		_EnemyWaspSprL
	.export		_EnemyWaspSprR
	.export		_EnemyBounceSpr
	.export		_EnemyBounceSpr2
	.export		_Boss1SprL
	.export		_Boss1SprR
	.export		_TurdSpr
	.export		_TurdLifeSpr
	.export		_EnemyWormSprL1
	.export		_EnemyWormSprL2
	.export		_EnemyWormSprR1
	.export		_EnemyWormSprR2
	.export		_pad1
	.export		_pad1_new
	.export		_collision
	.export		_collision_L
	.export		_collision_R
	.export		_collision_U
	.export		_collision_D
	.export		_coordinates
	.export		_temp1
	.export		_temp2
	.export		_temp3
	.export		_temp4
	.export		_temp5
	.export		_temp6
	.export		_eject_L
	.export		_eject_R
	.export		_eject_D
	.export		_eject_U
	.export		_direction
	.export		_address
	.export		_x
	.export		_y
	.export		_nt
	.export		_index
	.export		_index2
	.export		_room
	.export		_map
	.export		_scroll_x
	.export		_scroll_y
	.export		_scroll_count
	.export		_pseudo_scroll_x
	.export		_L_R_switch
	.export		_old_x
	.export		_temp_x
	.export		_temp_y
	.export		_song
	.export		_game_mode
	.export		_coins
	.export		_lives
	.export		_pointer
	.export		_level
	.export		_offset
	.export		_level_up
	.export		_bright
	.export		_bright_count
	.export		_death
	.export		_timer
	.export		_enemy_frames
	.export		_map_loaded
	.export		_short_jump_count
	.export		_temp_room
	.export		_c_map
	.export		_c_map2
	.export		_ENTITY1
	.export		_ENTITY2
	.export		_NINJA
	.export		_coin_x
	.export		_coin_y
	.export		_coin_active
	.export		_coin_room
	.export		_coin_actual_x
	.export		_coin_type
	.export		_enemy_x
	.export		_enemy_y
	.export		_enemy_active
	.export		_enemy_room
	.export		_enemy_actual_x
	.export		_enemy_type
	.export		_enemy_anim
	.export		_shuffle_array
	.export		_palette_title
	.export		_title_color_rotate
	.export		_palette_bg
	.export		_palette_sp
	.export		_END_TEXT
	.export		_END_TEXT2
	.export		_END_TEXT3
	.export		_DEAD_TEXT
	.export		_KENNY_CASON_TEXT
	.export		_title
	.export		_load_title
	.export		_load_room
	.export		_draw_sprites
	.export		_movement
	.export		_draw_screen_R
	.export		_new_cmap
	.export		_bg_collision_sub
	.export		_get_position
	.export		_enemy_moves
	.export		_sprite_collisions
	.export		_check_spr_objects
	.export		_sprite_obj_init
	.export		_bg_collision_fast
	.export		_bg_coll_L
	.export		_bg_coll_R
	.export		_bg_coll_U
	.export		_bg_coll_D
	.export		_bg_coll_D2
	.export		_turd_x
	.export		_turd_y
	.export		_turd_active
	.export		_turd_vel_x
	.export		_turd_vel_y
	.export		_turd_direction
	.export		_corn_mode
	.export		_enemy_bullet_x
	.export		_enemy_bullet_y
	.export		_enemy_bullet_active
	.export		_enemy_bullet_vel_x
	.export		_enemy_bullet_vel_y
	.export		_enemy_bullet_type
	.export		_enemy_bullet_cooldown
	.export		_enemy_bullet_room
	.export		_has_turd_power
	.export		_turd_cooldown
	.export		_fire_turd
	.export		_update_turds
	.export		_draw_turds
	.export		_fire_enemy_bullet
	.export		_update_enemy_bullets
	.export		_draw_enemy_bullets
	.export		_player_health
	.export		_damage_cooldown
	.export		_boss_health
	.export		_Coins_list
	.export		_Enemy_list
	.export		_level_main_data
	.import		_w1l1_main
	.import		_w1l2_main
	.import		_w1l3_main
	.import		_w1l1_coins
	.import		_w1l2_coins
	.import		_w1l3_coins
	.import		_w1l1_enemies
	.import		_w1l2_enemies
	.import		_w1l3_enemies
	.import		_w1l1_main_0
	.import		_w1l1_main_1
	.import		_w1l1_main_2
	.import		_w1l1_main_3
	.import		_w1l1_main_4
	.import		_w1l1_main_5
	.import		_w1l1_main_6
	.import		_w1l1_main_7
	.import		_w1l2_main_0
	.import		_w1l2_main_1
	.import		_w1l2_main_2
	.import		_w1l2_main_3
	.import		_w1l2_main_4
	.import		_w1l2_main_5
	.import		_w1l2_main_6
	.import		_w1l2_main_7
	.import		_w1l3_main_0
	.import		_w1l3_main_1
	.import		_w1l3_main_2
	.import		_w1l3_main_3
	.import		_w1l3_main_4
	.import		_w1l3_main_5
	.import		_w1l3_main_6
	.import		_w1l3_main_7
	.export		_metatiles1
	.export		_metatiles_pal1
	.export		_Levels_list
	.export		_Level_offsets
	.export		_max_rooms
	.export		_scroll_limits
	.export		_bounce
	.export		_coyote_time
	.export		_was_jumping
	.export		_main
	.export		_digit_to_font_tile

.segment	"DATA"

_bounce:
	.byte	$00
	.byte	$00
	.byte	$00
	.byte	$01
	.byte	$02
	.byte	$02
	.byte	$02
	.byte	$01

.segment	"RODATA"

_NinjaSprL:
	.byte	$FF
	.byte	$FC
	.byte	$02
	.byte	$01
	.byte	$07
	.byte	$FC
	.byte	$03
	.byte	$01
	.byte	$FF
	.byte	$04
	.byte	$12
	.byte	$01
	.byte	$07
	.byte	$04
	.byte	$13
	.byte	$01
	.byte	$80
_NinjaSprR:
	.byte	$FF
	.byte	$FC
	.byte	$00
	.byte	$01
	.byte	$07
	.byte	$FC
	.byte	$01
	.byte	$01
	.byte	$FF
	.byte	$04
	.byte	$10
	.byte	$01
	.byte	$07
	.byte	$04
	.byte	$11
	.byte	$01
	.byte	$80
_CoinSpr:
	.byte	$FF
	.byte	$FF
	.byte	$20
	.byte	$01
	.byte	$80
_CornSelectedSpr:
	.byte	$FF
	.byte	$FF
	.byte	$20
	.byte	$02
	.byte	$FF
	.byte	$07
	.byte	$30
	.byte	$02
	.byte	$80
_BigCoinSpr:
	.byte	$FF
	.byte	$FF
	.byte	$21
	.byte	$00
	.byte	$FF
	.byte	$07
	.byte	$31
	.byte	$01
	.byte	$07
	.byte	$FF
	.byte	$22
	.byte	$02
	.byte	$07
	.byte	$07
	.byte	$32
	.byte	$03
	.byte	$80
_CoinHud:
	.byte	$00
	.byte	$00
	.byte	$20
	.byte	$01
	.byte	$80
_EnemyWaspSprL:
	.byte	$FF
	.byte	$FF
	.byte	$08
	.byte	$02
	.byte	$07
	.byte	$FF
	.byte	$09
	.byte	$02
	.byte	$FF
	.byte	$07
	.byte	$18
	.byte	$02
	.byte	$07
	.byte	$07
	.byte	$19
	.byte	$02
	.byte	$80
_EnemyWaspSprR:
	.byte	$FF
	.byte	$FF
	.byte	$0A
	.byte	$02
	.byte	$07
	.byte	$FF
	.byte	$0B
	.byte	$02
	.byte	$FF
	.byte	$07
	.byte	$1A
	.byte	$02
	.byte	$07
	.byte	$07
	.byte	$1B
	.byte	$02
	.byte	$80
_EnemyBounceSpr:
	.byte	$FF
	.byte	$FF
	.byte	$06
	.byte	$03
	.byte	$07
	.byte	$FF
	.byte	$07
	.byte	$03
	.byte	$FF
	.byte	$07
	.byte	$16
	.byte	$03
	.byte	$07
	.byte	$07
	.byte	$17
	.byte	$03
	.byte	$80
_EnemyBounceSpr2:
	.byte	$FF
	.byte	$FF
	.byte	$04
	.byte	$03
	.byte	$07
	.byte	$FF
	.byte	$05
	.byte	$03
	.byte	$FF
	.byte	$07
	.byte	$14
	.byte	$03
	.byte	$07
	.byte	$07
	.byte	$15
	.byte	$03
	.byte	$80
_Boss1SprL:
	.byte	$FF
	.byte	$FF
	.byte	$2C
	.byte	$01
	.byte	$07
	.byte	$FF
	.byte	$2D
	.byte	$01
	.byte	$FF
	.byte	$07
	.byte	$3C
	.byte	$01
	.byte	$07
	.byte	$07
	.byte	$3D
	.byte	$01
	.byte	$0F
	.byte	$FF
	.byte	$2E
	.byte	$01
	.byte	$17
	.byte	$FF
	.byte	$2F
	.byte	$01
	.byte	$0F
	.byte	$07
	.byte	$3E
	.byte	$01
	.byte	$17
	.byte	$07
	.byte	$3F
	.byte	$01
	.byte	$FF
	.byte	$0F
	.byte	$4C
	.byte	$01
	.byte	$07
	.byte	$0F
	.byte	$4D
	.byte	$01
	.byte	$FF
	.byte	$17
	.byte	$5C
	.byte	$01
	.byte	$07
	.byte	$17
	.byte	$5D
	.byte	$01
	.byte	$0F
	.byte	$0F
	.byte	$4E
	.byte	$01
	.byte	$17
	.byte	$0F
	.byte	$4F
	.byte	$01
	.byte	$0F
	.byte	$17
	.byte	$5E
	.byte	$01
	.byte	$17
	.byte	$17
	.byte	$5F
	.byte	$01
	.byte	$80
_Boss1SprR:
	.byte	$FF
	.byte	$FF
	.byte	$6C
	.byte	$01
	.byte	$07
	.byte	$FF
	.byte	$6D
	.byte	$01
	.byte	$FF
	.byte	$07
	.byte	$7C
	.byte	$01
	.byte	$07
	.byte	$07
	.byte	$7D
	.byte	$01
	.byte	$0F
	.byte	$FF
	.byte	$6E
	.byte	$01
	.byte	$17
	.byte	$FF
	.byte	$6F
	.byte	$01
	.byte	$0F
	.byte	$07
	.byte	$7E
	.byte	$01
	.byte	$17
	.byte	$07
	.byte	$7F
	.byte	$01
	.byte	$FF
	.byte	$0F
	.byte	$8C
	.byte	$01
	.byte	$07
	.byte	$0F
	.byte	$8D
	.byte	$01
	.byte	$FF
	.byte	$17
	.byte	$9C
	.byte	$01
	.byte	$07
	.byte	$17
	.byte	$9D
	.byte	$01
	.byte	$0F
	.byte	$0F
	.byte	$8E
	.byte	$01
	.byte	$17
	.byte	$0F
	.byte	$8F
	.byte	$01
	.byte	$0F
	.byte	$17
	.byte	$9E
	.byte	$01
	.byte	$17
	.byte	$17
	.byte	$9F
	.byte	$01
	.byte	$80
_TurdSpr:
	.byte	$00
	.byte	$00
	.byte	$10
	.byte	$01
	.byte	$80
_TurdLifeSpr:
	.byte	$00
	.byte	$00
	.byte	$30
	.byte	$01
	.byte	$80
_EnemyWormSprL1:
	.byte	$FF
	.byte	$FF
	.byte	$26
	.byte	$03
	.byte	$07
	.byte	$FF
	.byte	$27
	.byte	$03
	.byte	$FF
	.byte	$07
	.byte	$36
	.byte	$03
	.byte	$07
	.byte	$07
	.byte	$37
	.byte	$03
	.byte	$80
_EnemyWormSprL2:
	.byte	$FF
	.byte	$FF
	.byte	$28
	.byte	$03
	.byte	$07
	.byte	$FF
	.byte	$29
	.byte	$03
	.byte	$FF
	.byte	$07
	.byte	$38
	.byte	$03
	.byte	$07
	.byte	$07
	.byte	$39
	.byte	$03
	.byte	$80
_EnemyWormSprR1:
	.byte	$FF
	.byte	$FF
	.byte	$46
	.byte	$03
	.byte	$07
	.byte	$FF
	.byte	$47
	.byte	$03
	.byte	$FF
	.byte	$07
	.byte	$56
	.byte	$03
	.byte	$07
	.byte	$07
	.byte	$57
	.byte	$03
	.byte	$80
_EnemyWormSprR2:
	.byte	$FF
	.byte	$FF
	.byte	$48
	.byte	$03
	.byte	$07
	.byte	$FF
	.byte	$49
	.byte	$03
	.byte	$FF
	.byte	$07
	.byte	$58
	.byte	$03
	.byte	$07
	.byte	$07
	.byte	$59
	.byte	$03
	.byte	$80
_shuffle_array:
	.byte	$00
	.byte	$01
	.byte	$02
	.byte	$03
	.byte	$04
	.byte	$05
	.byte	$06
	.byte	$07
	.byte	$08
	.byte	$09
	.byte	$0A
	.byte	$0B
	.byte	$0C
	.byte	$0D
	.byte	$0E
	.byte	$0F
	.byte	$0F
	.byte	$0E
	.byte	$0D
	.byte	$0C
	.byte	$0B
	.byte	$0A
	.byte	$09
	.byte	$08
	.byte	$07
	.byte	$06
	.byte	$05
	.byte	$04
	.byte	$03
	.byte	$02
	.byte	$01
	.byte	$00
	.byte	$00
	.byte	$02
	.byte	$04
	.byte	$06
	.byte	$08
	.byte	$0A
	.byte	$0C
	.byte	$0E
	.byte	$01
	.byte	$03
	.byte	$05
	.byte	$07
	.byte	$09
	.byte	$0B
	.byte	$0D
	.byte	$0F
	.byte	$0F
	.byte	$0D
	.byte	$0B
	.byte	$09
	.byte	$07
	.byte	$05
	.byte	$03
	.byte	$01
	.byte	$0E
	.byte	$0C
	.byte	$0A
	.byte	$08
	.byte	$06
	.byte	$04
	.byte	$02
	.byte	$00
_palette_title:
	.byte	$0F
	.byte	$04
	.byte	$15
	.byte	$32
	.byte	$00
	.byte	$00
	.byte	$00
	.byte	$00
	.byte	$00
	.byte	$00
	.byte	$00
	.byte	$00
	.byte	$00
	.byte	$00
	.byte	$00
	.byte	$00
_title_color_rotate:
	.byte	$32
	.byte	$22
	.byte	$30
	.byte	$37
_palette_bg:
	.byte	$0F
	.byte	$16
	.byte	$26
	.byte	$06
	.byte	$0F
	.byte	$17
	.byte	$19
	.byte	$29
	.byte	$0F
	.byte	$17
	.byte	$07
	.byte	$10
	.byte	$0F
	.byte	$08
	.byte	$19
	.byte	$29
_palette_sp:
	.byte	$0F
	.byte	$01
	.byte	$11
	.byte	$10
	.byte	$0F
	.byte	$17
	.byte	$28
	.byte	$38
	.byte	$0F
	.byte	$0C
	.byte	$2C
	.byte	$30
	.byte	$0F
	.byte	$03
	.byte	$13
	.byte	$33
_END_TEXT:
	.byte	$43
	.byte	$4F
	.byte	$4E
	.byte	$47
	.byte	$52
	.byte	$41
	.byte	$54
	.byte	$55
	.byte	$4C
	.byte	$41
	.byte	$54
	.byte	$49
	.byte	$4F
	.byte	$4E
	.byte	$53
	.byte	$01
_END_TEXT2:
	.byte	$59
	.byte	$4F
	.byte	$55
	.byte	$00
	.byte	$53
	.byte	$41
	.byte	$56
	.byte	$45
	.byte	$44
	.byte	$00
	.byte	$53
	.byte	$54
	.byte	$45
	.byte	$56
	.byte	$45
	.byte	$00
	.byte	$41
	.byte	$47
	.byte	$41
	.byte	$49
	.byte	$4E
	.byte	$0E
_END_TEXT3:
	.byte	$43
	.byte	$4F
	.byte	$52
	.byte	$4E
	.byte	$1A
	.byte	$00
_DEAD_TEXT:
	.byte	$27
	.byte	$41
	.byte	$4D
	.byte	$45
	.byte	$00
	.byte	$2F
	.byte	$56
	.byte	$45
	.byte	$52
_KENNY_CASON_TEXT:
	.byte	$2B
	.byte	$45
	.byte	$4E
	.byte	$4E
	.byte	$59
	.byte	$00
	.byte	$23
	.byte	$41
	.byte	$53
	.byte	$4F
	.byte	$4E
_title:
	.byte	$01
	.byte	$00
	.byte	$01
	.byte	$FE
	.byte	$00
	.byte	$01
	.byte	$0B
	.byte	$80
	.byte	$81
	.byte	$82
	.byte	$83
	.byte	$84
	.byte	$85
	.byte	$86
	.byte	$87
	.byte	$88
	.byte	$89
	.byte	$8A
	.byte	$00
	.byte	$01
	.byte	$14
	.byte	$90
	.byte	$91
	.byte	$92
	.byte	$93
	.byte	$94
	.byte	$95
	.byte	$96
	.byte	$97
	.byte	$98
	.byte	$99
	.byte	$9A
	.byte	$00
	.byte	$01
	.byte	$14
	.byte	$A0
	.byte	$A1
	.byte	$A2
	.byte	$A3
	.byte	$A4
	.byte	$A5
	.byte	$A6
	.byte	$A7
	.byte	$A8
	.byte	$A9
	.byte	$AA
	.byte	$00
	.byte	$01
	.byte	$32
	.byte	$B0
	.byte	$B1
	.byte	$B2
	.byte	$B3
	.byte	$B4
	.byte	$B5
	.byte	$B6
	.byte	$B7
	.byte	$B8
	.byte	$B9
	.byte	$BA
	.byte	$BB
	.byte	$BC
	.byte	$BD
	.byte	$BE
	.byte	$00
	.byte	$01
	.byte	$10
	.byte	$C0
	.byte	$C1
	.byte	$C2
	.byte	$C3
	.byte	$C4
	.byte	$C5
	.byte	$C6
	.byte	$C7
	.byte	$C8
	.byte	$C9
	.byte	$CA
	.byte	$CB
	.byte	$CC
	.byte	$CD
	.byte	$CE
	.byte	$00
	.byte	$01
	.byte	$10
	.byte	$D0
	.byte	$D1
	.byte	$D2
	.byte	$D3
	.byte	$D4
	.byte	$D5
	.byte	$D6
	.byte	$D7
	.byte	$D8
	.byte	$D9
	.byte	$DA
	.byte	$DB
	.byte	$DC
	.byte	$DD
	.byte	$DE
	.byte	$00
	.byte	$01
	.byte	$10
	.byte	$E0
	.byte	$E1
	.byte	$E2
	.byte	$E3
	.byte	$E4
	.byte	$E5
	.byte	$E6
	.byte	$E7
	.byte	$E8
	.byte	$E9
	.byte	$EA
	.byte	$EB
	.byte	$EC
	.byte	$ED
	.byte	$EE
	.byte	$00
	.byte	$01
	.byte	$AF
	.byte	$12
	.byte	$10
	.byte	$12
	.byte	$15
	.byte	$00
	.byte	$00
	.byte	$2B
	.byte	$45
	.byte	$4E
	.byte	$4E
	.byte	$59
	.byte	$00
	.byte	$23
	.byte	$41
	.byte	$53
	.byte	$4F
	.byte	$4E
	.byte	$00
	.byte	$01
	.byte	$FE
	.byte	$00
	.byte	$01
	.byte	$46
	.byte	$00
	.byte	$01
	.byte	$00
_level_main_data:
	.addr	_w1l1_main
	.addr	_w1l2_main
	.addr	_w1l3_main
_Coins_list:
	.addr	_w1l1_coins
	.addr	_w1l2_coins
	.addr	_w1l3_coins
_Enemy_list:
	.addr	_w1l1_enemies
	.addr	_w1l2_enemies
	.addr	_w1l3_enemies
_metatiles1:
	.byte	$00
	.byte	$01
	.byte	$10
	.byte	$11
	.byte	$03
	.byte	$02
	.byte	$03
	.byte	$12
	.byte	$13
	.byte	$02
	.byte	$04
	.byte	$05
	.byte	$14
	.byte	$15
	.byte	$01
	.byte	$06
	.byte	$07
	.byte	$16
	.byte	$17
	.byte	$01
	.byte	$08
	.byte	$09
	.byte	$18
	.byte	$19
	.byte	$21
	.byte	$0A
	.byte	$0B
	.byte	$1A
	.byte	$1B
	.byte	$21
	.byte	$0C
	.byte	$0D
	.byte	$1C
	.byte	$1D
	.byte	$42
	.byte	$0E
	.byte	$0F
	.byte	$1E
	.byte	$1F
	.byte	$42
	.byte	$20
	.byte	$21
	.byte	$30
	.byte	$31
	.byte	$00
	.byte	$22
	.byte	$23
	.byte	$32
	.byte	$33
	.byte	$01
	.byte	$24
	.byte	$25
	.byte	$34
	.byte	$35
	.byte	$01
	.byte	$26
	.byte	$27
	.byte	$36
	.byte	$37
	.byte	$01
	.byte	$28
	.byte	$29
	.byte	$38
	.byte	$39
	.byte	$21
	.byte	$2A
	.byte	$2B
	.byte	$3A
	.byte	$3B
	.byte	$21
	.byte	$2C
	.byte	$2D
	.byte	$3C
	.byte	$3D
	.byte	$42
	.byte	$2E
	.byte	$2F
	.byte	$3E
	.byte	$3F
	.byte	$42
	.byte	$40
	.byte	$41
	.byte	$50
	.byte	$51
	.byte	$00
	.byte	$42
	.byte	$43
	.byte	$52
	.byte	$53
	.byte	$01
	.byte	$44
	.byte	$45
	.byte	$54
	.byte	$55
	.byte	$01
	.byte	$46
	.byte	$47
	.byte	$56
	.byte	$57
	.byte	$01
	.byte	$48
	.byte	$49
	.byte	$58
	.byte	$59
	.byte	$21
	.byte	$4A
	.byte	$4B
	.byte	$5A
	.byte	$5B
	.byte	$21
	.byte	$4C
	.byte	$4D
	.byte	$5C
	.byte	$5D
	.byte	$42
	.byte	$4E
	.byte	$4F
	.byte	$5E
	.byte	$5F
	.byte	$42
	.byte	$60
	.byte	$61
	.byte	$70
	.byte	$71
	.byte	$00
	.byte	$62
	.byte	$63
	.byte	$72
	.byte	$73
	.byte	$01
	.byte	$64
	.byte	$65
	.byte	$74
	.byte	$75
	.byte	$01
	.byte	$66
	.byte	$67
	.byte	$76
	.byte	$77
	.byte	$01
	.byte	$68
	.byte	$69
	.byte	$78
	.byte	$79
	.byte	$21
	.byte	$6A
	.byte	$6B
	.byte	$7A
	.byte	$7B
	.byte	$21
	.byte	$6C
	.byte	$6D
	.byte	$7C
	.byte	$7D
	.byte	$42
	.byte	$6E
	.byte	$6F
	.byte	$7E
	.byte	$7F
	.byte	$42
	.byte	$80
	.byte	$81
	.byte	$90
	.byte	$91
	.byte	$00
	.byte	$82
	.byte	$83
	.byte	$92
	.byte	$93
	.byte	$01
	.byte	$84
	.byte	$85
	.byte	$94
	.byte	$95
	.byte	$01
	.byte	$86
	.byte	$87
	.byte	$96
	.byte	$97
	.byte	$01
	.byte	$88
	.byte	$89
	.byte	$98
	.byte	$99
	.byte	$21
	.byte	$8A
	.byte	$8B
	.byte	$9A
	.byte	$9B
	.byte	$21
	.byte	$8C
	.byte	$8D
	.byte	$9C
	.byte	$9D
	.byte	$42
	.byte	$8E
	.byte	$8F
	.byte	$9E
	.byte	$9F
	.byte	$42
	.byte	$A0
	.byte	$A1
	.byte	$B0
	.byte	$B1
	.byte	$00
	.byte	$A2
	.byte	$A3
	.byte	$B2
	.byte	$B3
	.byte	$01
	.byte	$A4
	.byte	$A5
	.byte	$B4
	.byte	$B5
	.byte	$01
	.byte	$A6
	.byte	$A7
	.byte	$B6
	.byte	$B7
	.byte	$01
	.byte	$A8
	.byte	$A9
	.byte	$B8
	.byte	$B9
	.byte	$21
	.byte	$AA
	.byte	$AB
	.byte	$BA
	.byte	$BB
	.byte	$21
	.byte	$AC
	.byte	$AD
	.byte	$BC
	.byte	$BD
	.byte	$42
	.byte	$AE
	.byte	$AF
	.byte	$BE
	.byte	$BF
	.byte	$42
	.byte	$C0
	.byte	$C1
	.byte	$D0
	.byte	$D1
	.byte	$00
	.byte	$C2
	.byte	$C3
	.byte	$D2
	.byte	$D3
	.byte	$01
	.byte	$C4
	.byte	$C5
	.byte	$D4
	.byte	$D5
	.byte	$01
	.byte	$C6
	.byte	$C7
	.byte	$D6
	.byte	$D7
	.byte	$01
	.byte	$C8
	.byte	$C9
	.byte	$D8
	.byte	$D9
	.byte	$21
	.byte	$CA
	.byte	$CB
	.byte	$DA
	.byte	$DB
	.byte	$21
	.byte	$CC
	.byte	$CD
	.byte	$DC
	.byte	$DD
	.byte	$42
	.byte	$CE
	.byte	$CF
	.byte	$DE
	.byte	$DF
	.byte	$42
	.byte	$E0
	.byte	$E1
	.byte	$F0
	.byte	$F1
	.byte	$00
	.byte	$E2
	.byte	$E3
	.byte	$F2
	.byte	$F3
	.byte	$01
	.byte	$E4
	.byte	$E5
	.byte	$F4
	.byte	$F5
	.byte	$01
	.byte	$E6
	.byte	$E7
	.byte	$F6
	.byte	$F7
	.byte	$01
	.byte	$E8
	.byte	$E9
	.byte	$F8
	.byte	$F9
	.byte	$21
	.byte	$EA
	.byte	$EB
	.byte	$FA
	.byte	$FB
	.byte	$21
	.byte	$EC
	.byte	$ED
	.byte	$FC
	.byte	$FD
	.byte	$42
	.byte	$EE
	.byte	$EF
	.byte	$FE
	.byte	$FF
	.byte	$42
_metatiles_pal1:
	.byte	$03
	.byte	$02
	.byte	$01
	.byte	$00
	.byte	$01
	.byte	$01
	.byte	$02
	.byte	$02
	.byte	$00
	.byte	$01
	.byte	$02
	.byte	$03
	.byte	$01
	.byte	$01
	.byte	$02
	.byte	$02
	.byte	$00
	.byte	$01
	.byte	$02
	.byte	$03
	.byte	$01
	.byte	$01
	.byte	$02
	.byte	$02
	.byte	$00
	.byte	$01
	.byte	$02
	.byte	$03
	.byte	$01
	.byte	$01
	.byte	$02
	.byte	$02
	.byte	$00
	.byte	$01
	.byte	$02
	.byte	$03
	.byte	$01
	.byte	$01
	.byte	$02
	.byte	$02
	.byte	$00
	.byte	$01
	.byte	$02
	.byte	$03
	.byte	$01
	.byte	$01
	.byte	$02
	.byte	$02
	.byte	$00
	.byte	$01
	.byte	$02
	.byte	$03
	.byte	$01
	.byte	$01
	.byte	$02
	.byte	$02
	.byte	$00
	.byte	$01
	.byte	$02
	.byte	$03
	.byte	$01
	.byte	$01
	.byte	$02
	.byte	$02
_Levels_list:
	.addr	_w1l1_main_0
	.addr	_w1l1_main_1
	.addr	_w1l1_main_2
	.addr	_w1l1_main_3
	.addr	_w1l1_main_4
	.addr	_w1l1_main_5
	.addr	_w1l1_main_6
	.addr	_w1l1_main_7
	.addr	_w1l2_main_0
	.addr	_w1l2_main_1
	.addr	_w1l2_main_2
	.addr	_w1l2_main_3
	.addr	_w1l2_main_4
	.addr	_w1l2_main_5
	.addr	_w1l2_main_6
	.addr	_w1l2_main_7
	.addr	_w1l3_main_0
	.addr	_w1l3_main_1
	.addr	_w1l3_main_2
	.addr	_w1l3_main_3
	.addr	_w1l3_main_4
	.addr	_w1l3_main_5
	.addr	_w1l3_main_6
	.addr	_w1l3_main_7
_Level_offsets:
	.byte	$00
	.byte	$08
	.byte	$10
_max_rooms:
	.byte	$08
	.byte	$08
	.byte	$08
_scroll_limits:
	.byte	$07
	.byte	$07
	.byte	$07

.segment	"BSS"

.segment	"ZEROPAGE"
_pad1:
	.res	1,$00
_pad1_new:
	.res	1,$00
_collision:
	.res	1,$00
_collision_L:
	.res	1,$00
_collision_R:
	.res	1,$00
_collision_U:
	.res	1,$00
_collision_D:
	.res	1,$00
_coordinates:
	.res	1,$00
_temp1:
	.res	1,$00
_temp2:
	.res	1,$00
_temp3:
	.res	1,$00
_temp4:
	.res	1,$00
_temp5:
	.res	2,$00
_temp6:
	.res	2,$00
_eject_L:
	.res	1,$00
_eject_R:
	.res	1,$00
_eject_D:
	.res	1,$00
_eject_U:
	.res	1,$00
_direction:
	.res	1,$00
_address:
	.res	2,$00
_x:
	.res	1,$00
_y:
	.res	1,$00
_nt:
	.res	1,$00
_index:
	.res	1,$00
_index2:
	.res	1,$00
_room:
	.res	1,$00
_map:
	.res	1,$00
_scroll_x:
	.res	2,$00
_scroll_y:
	.res	2,$00
_scroll_count:
	.res	1,$00
_pseudo_scroll_x:
	.res	2,$00
_L_R_switch:
	.res	1,$00
_old_x:
	.res	2,$00
_temp_x:
	.res	1,$00
_temp_y:
	.res	1,$00
_song:
	.res	1,$00
_game_mode:
	.res	1,$00
_coins:
	.res	1,$00
_lives:
	.res	1,$00
_pointer:
	.res	2,$00
_level:
	.res	1,$00
_offset:
	.res	1,$00
_level_up:
	.res	1,$00
_bright:
	.res	1,$00
_bright_count:
	.res	1,$00
_death:
	.res	1,$00
_timer:
	.res	1,$00
_enemy_frames:
	.res	1,$00
_map_loaded:
	.res	1,$00
_short_jump_count:
	.res	1,$00
_temp_room:
	.res	1,$00
.segment	"BSS"
_c_map:
	.res	240,$00
_c_map2:
	.res	240,$00
_ENTITY1:
	.res	4,$00
_ENTITY2:
	.res	4,$00
_NINJA:
	.res	10,$00
_coin_x:
	.res	16,$00
_coin_y:
	.res	16,$00
_coin_active:
	.res	16,$00
_coin_room:
	.res	16,$00
_coin_actual_x:
	.res	16,$00
_coin_type:
	.res	16,$00
_enemy_x:
	.res	16,$00
_enemy_y:
	.res	16,$00
_enemy_active:
	.res	16,$00
_enemy_room:
	.res	16,$00
_enemy_actual_x:
	.res	16,$00
_enemy_type:
	.res	16,$00
_enemy_anim:
	.res	32,$00
_turd_x:
	.res	4,$00
_turd_y:
	.res	4,$00
_turd_active:
	.res	4,$00
_turd_vel_x:
	.res	4,$00
_turd_vel_y:
	.res	4,$00
_turd_direction:
	.res	4,$00
_corn_mode:
	.res	1,$00
_enemy_bullet_x:
	.res	8,$00
_enemy_bullet_y:
	.res	8,$00
_enemy_bullet_active:
	.res	8,$00
_enemy_bullet_vel_x:
	.res	8,$00
_enemy_bullet_vel_y:
	.res	8,$00
_enemy_bullet_type:
	.res	8,$00
_enemy_bullet_cooldown:
	.res	8,$00
_enemy_bullet_room:
	.res	8,$00
_has_turd_power:
	.res	1,$00
_turd_cooldown:
	.res	1,$00
_player_health:
	.res	1,$00
_damage_cooldown:
	.res	1,$00
_boss_health:
	.res	1,$00
_coyote_time:
	.res	1,$00
_was_jumping:
	.res	1,$00

; ---------------------------------------------------------------
; void __near__ mmc1_write (unsigned int address, unsigned char value)
; ---------------------------------------------------------------

.segment	"CODE"

.proc	_mmc1_write: near

.segment	"CODE"

;
; void mmc1_write(unsigned int address, unsigned char value) {
;
	jsr     pusha
;
; for (i = 0; i < 5; ++i) {
;
	jsr     decsp1
	lda     #$00
	tay
L0006:	sta     (sp),y
	cmp     #$05
	bcs     L0003
;
; *((unsigned char*)address) = value & 1;
;
	ldy     #$03
	lda     (sp),y
	sta     ptr1+1
	dey
	lda     (sp),y
	sta     ptr1
	dey
	lda     (sp),y
	and     #$01
	dey
	sta     (ptr1),y
;
; value = value >> 1;
;
	iny
	lda     (sp),y
	lsr     a
	sta     (sp),y
;
; for (i = 0; i < 5; ++i) {
;
	dey
	clc
	lda     #$01
	adc     (sp),y
	jmp     L0006
;
; }
;
L0003:	jmp     incsp4

.endproc

; ---------------------------------------------------------------
; void __near__ mmc1_init (void)
; ---------------------------------------------------------------

.segment	"CODE"

.proc	_mmc1_init: near

.segment	"CODE"

;
; *((unsigned char*)MMC1_CONTROL) = 0x80;
;
	lda     #$80
	sta     $8000
;
; mmc1_write(MMC1_CONTROL, 0x12);  // 0001 0010
;
	tax
	lda     #$00
	jsr     pushax
	lda     #$12
	jsr     _mmc1_write
;
; mmc1_write(MMC1_CHR0, 0);  // First 4KB bank
;
	ldx     #$A0
	lda     #$00
	jsr     pushax
	jsr     _mmc1_write
;
; mmc1_write(MMC1_CHR1, 0);  // Second 4KB bank
;
	ldx     #$C0
	lda     #$00
	jsr     pushax
	jmp     _mmc1_write

.endproc

; ---------------------------------------------------------------
; void __near__ setup_pattern_tables (unsigned char bg_bank, unsigned char spr_bank)
; ---------------------------------------------------------------

.segment	"CODE"

.proc	_setup_pattern_tables: near

.segment	"CODE"

;
; void setup_pattern_tables(unsigned char bg_bank, unsigned char spr_bank) {
;
	jsr     pusha
;
; mmc1_write(MMC1_CHR0, bg_bank * 2);      // First 4KB
;
	ldx     #$A0
	lda     #$00
	jsr     pushax
	ldy     #$03
	lda     (sp),y
	asl     a
	jsr     _mmc1_write
;
; mmc1_write(MMC1_CHR1, bg_bank * 2 + 1);  // Second 4KB
;
	ldx     #$C0
	lda     #$00
	jsr     pushax
	ldy     #$03
	lda     (sp),y
	asl     a
	clc
	adc     #$01
	jsr     _mmc1_write
;
; }
;
	jmp     incsp2

.endproc

; ---------------------------------------------------------------
; void __near__ fade_in_palette (const unsigned char *palette, unsigned char delay_frames)
; ---------------------------------------------------------------

.segment	"CODE"

.proc	_fade_in_palette: near

.segment	"CODE"

;
; void fade_in_palette(const unsigned char *palette, unsigned char delay_frames) {
;
	jsr     pusha
;
; pal_clear();
;
	ldy     #$21
	jsr     subysp
	jsr     _pal_clear
;
; for (i = 0; i < 32; i++) {
;
	lda     #$00
	ldy     #$20
L000F:	sta     (sp),y
	cmp     #$20
	bcs     L0003
;
; temp_pal[i] = palette[i];
;
	lda     sp
	ldx     sp+1
	clc
	adc     (sp),y
	bcc     L0006
	inx
L0006:	sta     sreg
	stx     sreg+1
	ldy     #$23
	lda     (sp),y
	sta     ptr1+1
	dey
	lda     (sp),y
	sta     ptr1
	ldy     #$20
	lda     (sp),y
	tay
	lda     (ptr1),y
	ldy     #$00
	sta     (sreg),y
;
; pal_col(i, temp_pal[i]);
;
	ldy     #$20
	lda     (sp),y
	jsr     pusha
	lda     sp
	ldx     sp+1
	clc
	adc     #$01
	bcc     L0007
	inx
L0007:	ldy     #$21
	clc
	adc     (sp),y
	bcc     L0008
	inx
L0008:	sta     ptr1
	stx     ptr1+1
	ldy     #$00
	lda     (ptr1),y
	jsr     _pal_col
;
; ppu_wait_nmi(); // Wait for NMI to complete
;
	jsr     _ppu_wait_nmi
;
; if (delay_frames > 0) {
;
	ldy     #$21
	lda     (sp),y
	beq     L0004
;
; for (j = 0; j < delay_frames; j++) {
;
	jsr     decsp1
	lda     #$00
	tay
L000E:	sta     (sp),y
	ldy     #$22
	cmp     (sp),y
	bcs     L000B
;
; ppu_wait_nmi();
;
	jsr     _ppu_wait_nmi
;
; for (j = 0; j < delay_frames; j++) {
;
	ldy     #$00
	clc
	lda     #$01
	adc     (sp),y
	jmp     L000E
;
; }
;
L000B:	jsr     incsp1
;
; for (i = 0; i < 32; i++) {
;
L0004:	ldy     #$20
	clc
	lda     #$01
	adc     (sp),y
	jmp     L000F
;
; }
;
L0003:	ldy     #$24
	jmp     addysp

.endproc

; ---------------------------------------------------------------
; void __near__ fade_out_palette (unsigned char delay_frames)
; ---------------------------------------------------------------

.segment	"CODE"

.proc	_fade_out_palette: near

.segment	"CODE"

;
; void fade_out_palette(unsigned char delay_frames) {
;
	jsr     pusha
;
; for (i = 0; i < 32; i++) {
;
	ldy     #$22
	jsr     subysp
	lda     #$00
	ldy     #$21
L0019:	sta     (sp),y
	cmp     #$20
	bcs     L001D
;
; temp_pal[i] = 0x0F; // Default to black
;
	lda     sp+1
	sta     ptr1+1
	lda     sp
	sta     ptr1
	lda     (sp),y
	tay
	lda     #$0F
	sta     (ptr1),y
;
; for (i = 0; i < 32; i++) {
;
	ldy     #$21
	clc
	lda     #$01
	adc     (sp),y
	jmp     L0019
;
; for (i = 0; i < 32; i++) {
;
L001D:	lda     #$00
L001C:	sta     (sp),y
	cmp     #$20
	jcs     L0008
;
; for (j = 0; j < 32; j++) {
;
	lda     #$00
	dey
L001A:	sta     (sp),y
	cmp     #$20
	bcs     L000C
;
; if (temp_pal[j] > 0) {
;
	lda     sp
	ldx     sp+1
	clc
	adc     (sp),y
	bcc     L0010
	inx
L0010:	sta     ptr1
	stx     ptr1+1
	ldy     #$00
	lda     (ptr1),y
	beq     L000D
;
; temp_pal[j]--;
;
	lda     sp
	ldx     sp+1
	ldy     #$20
	clc
	adc     (sp),y
	bcc     L0011
	inx
L0011:	sta     sreg
	stx     sreg+1
	sta     ptr1
	stx     ptr1+1
	ldy     #$00
	lda     (ptr1),y
	sec
	sbc     #$01
	sta     (sreg),y
;
; pal_col(j, temp_pal[j]);
;
	ldy     #$20
	lda     (sp),y
	jsr     pusha
	lda     sp
	ldx     sp+1
	clc
	adc     #$01
	bcc     L0012
	inx
L0012:	ldy     #$21
	clc
	adc     (sp),y
	bcc     L0013
	inx
L0013:	sta     ptr1
	stx     ptr1+1
	ldy     #$00
	lda     (ptr1),y
	jsr     _pal_col
;
; for (j = 0; j < 32; j++) {
;
L000D:	ldy     #$20
	clc
	lda     #$01
	adc     (sp),y
	jmp     L001A
;
; ppu_wait_nmi();
;
L000C:	jsr     _ppu_wait_nmi
;
; if (delay_frames > 0) {
;
	ldy     #$22
	lda     (sp),y
	beq     L0009
;
; for (k = 0; k < delay_frames; k++) {
;
	jsr     decsp1
	lda     #$00
	tay
L001B:	sta     (sp),y
	ldy     #$23
	cmp     (sp),y
	bcs     L0016
;
; ppu_wait_nmi();
;
	jsr     _ppu_wait_nmi
;
; for (k = 0; k < delay_frames; k++) {
;
	ldy     #$00
	clc
	lda     #$01
	adc     (sp),y
	jmp     L001B
;
; }
;
L0016:	jsr     incsp1
;
; for (i = 0; i < 32; i++) {
;
L0009:	ldy     #$21
	clc
	lda     #$01
	adc     (sp),y
	jmp     L001C
;
; }
;
L0008:	ldy     #$23
	jmp     addysp

.endproc

; ---------------------------------------------------------------
; unsigned char __near__ create_sprite (unsigned char x, unsigned char y, unsigned char tile, unsigned char palette, unsigned char flip_h, unsigned char flip_v, unsigned char behind)
; ---------------------------------------------------------------

.segment	"CODE"

.proc	_create_sprite: near

.segment	"CODE"

;
; unsigned char flip_v, unsigned char behind) {
;
	jsr     pusha
;
; unsigned char attr = palette;
;
	ldy     #$03
	lda     (sp),y
	jsr     pusha
;
; if (flip_h) attr |= OAM_FLIP_H;
;
	ldy     #$03
	lda     (sp),y
	beq     L0002
	ldy     #$00
	lda     (sp),y
	ora     #$40
	sta     (sp),y
;
; if (flip_v) attr |= OAM_FLIP_V;
;
L0002:	ldy     #$02
	lda     (sp),y
	beq     L0003
	ldy     #$00
	lda     (sp),y
	ora     #$80
	sta     (sp),y
;
; if (behind) attr |= OAM_BEHIND;
;
L0003:	ldy     #$01
	lda     (sp),y
	beq     L0004
	dey
	lda     (sp),y
	ora     #$20
	sta     (sp),y
;
; oam_spr(x, y, tile, attr);
;
L0004:	jsr     decsp3
	ldy     #$0A
	lda     (sp),y
	ldy     #$02
	sta     (sp),y
	ldy     #$09
	lda     (sp),y
	ldy     #$01
	sta     (sp),y
	ldy     #$08
	lda     (sp),y
	ldy     #$00
	sta     (sp),y
	ldy     #$03
	lda     (sp),y
	jsr     _oam_spr
;
; return oam_get();
;
	jsr     _oam_get
;
; }
;
	jmp     incsp8

.endproc

; ---------------------------------------------------------------
; void __near__ update_sprite_pos (unsigned char index, unsigned char x, unsigned char y)
; ---------------------------------------------------------------

.segment	"CODE"

.proc	_update_sprite_pos: near

.segment	"CODE"

;
; void update_sprite_pos(unsigned char index, unsigned char x, unsigned char y) {
;
	jsr     pusha
;
; oam_spr(x, y, 0, 0); // Use default attributes
;
	jsr     decsp3
	ldy     #$04
	lda     (sp),y
	ldy     #$02
	sta     (sp),y
	iny
	lda     (sp),y
	ldy     #$01
	sta     (sp),y
	lda     #$00
	dey
	sta     (sp),y
	jsr     _oam_spr
;
; }
;
	jmp     incsp3

.endproc

; ---------------------------------------------------------------
; void __near__ draw_border (unsigned char x, unsigned char y, unsigned char width, unsigned char height)
; ---------------------------------------------------------------

.segment	"CODE"

.proc	_draw_border: near

.segment	"CODE"

;
; void draw_border(unsigned char x, unsigned char y, unsigned char width, unsigned char height) {
;
	jsr     pusha
;
; for(row = 0; row < height; row++) {
;
	jsr     decsp2
	lda     #$00
	ldy     #$01
L000C:	sta     (sp),y
	iny
	cmp     (sp),y
	bcs     L0003
;
; vram_adr(NTADR_A(x, y + row));
;
	ldx     #$00
	dey
	lda     (sp),y
	clc
	ldy     #$04
	adc     (sp),y
	bcc     L000A
	inx
L000A:	jsr     aslax4
	stx     tmp1
	asl     a
	rol     tmp1
	sta     ptr1
	iny
	lda     (sp),y
	ora     ptr1
	pha
	lda     tmp1
	ora     #$20
	tax
	pla
	jsr     _vram_adr
;
; for(col = 0; col < width; col++) {
;
	lda     #$00
	tay
L000B:	sta     (sp),y
	ldy     #$03
	cmp     (sp),y
	bcs     L0004
;
; vram_put(TILE_BLANK);
;
	lda     #$FF
	jsr     _vram_put
;
; for(col = 0; col < width; col++) {
;
	ldy     #$00
	clc
	lda     #$01
	adc     (sp),y
	jmp     L000B
;
; for(row = 0; row < height; row++) {
;
L0004:	ldy     #$01
	clc
	tya
	adc     (sp),y
	jmp     L000C
;
; }
;
L0003:	jmp     incsp6

.endproc

; ---------------------------------------------------------------
; void __near__ load_title (void)
; ---------------------------------------------------------------

.segment	"CODE"

.proc	_load_title: near

.segment	"CODE"

;
; mmc1_write(MMC1_CONTROL, 0x12);  // 4KB CHR mode
;
	ldx     #$80
	lda     #$00
	jsr     pushax
	lda     #$12
	jsr     _mmc1_write
;
; mmc1_write(MMC1_CHR0, CHR_BANK_FONT);   // Font tiles
;
	ldx     #$A0
	lda     #$00
	jsr     pushax
	jsr     _mmc1_write
;
; mmc1_write(MMC1_CHR1, CHR_BANK_TITLE);  // Title graphics
;
	ldx     #$C0
	lda     #$00
	jsr     pushax
	lda     #$01
	jsr     _mmc1_write
;
; pal_bg(palette_title);
;
	lda     #<(_palette_title)
	ldx     #>(_palette_title)
	jsr     _pal_bg
;
; pal_spr(palette_sp);
;
	lda     #<(_palette_sp)
	ldx     #>(_palette_sp)
	jsr     _pal_spr
;
; vram_adr(NAMETABLE_A);
;
	ldx     #$20
	lda     #$00
	jsr     _vram_adr
;
; vram_unrle(title);
;
	lda     #<(_title)
	ldx     #>(_title)
	jsr     _vram_unrle
;
; game_mode = MODE_TITLE;
;
	lda     #$00
	sta     _game_mode
;
; }
;
	rts

.endproc

; ---------------------------------------------------------------
; void __near__ load_room (void)
; ---------------------------------------------------------------

.segment	"CODE"

.proc	_load_room: near

.segment	"CODE"

;
; clear_vram_buffer();
;
	jsr     _clear_vram_buffer
;
; mmc1_write(MMC1_CONTROL, 0x12);  // 4KB CHR mode
;
	ldx     #$80
	lda     #$00
	jsr     pushax
	lda     #$12
	jsr     _mmc1_write
;
; mmc1_write(MMC1_CHR0, CHR_BANK_MAP);     // Pattern Table 0 (background) uses map tiles
;
	ldx     #$A0
	lda     #$00
	jsr     pushax
	lda     #$02
	jsr     _mmc1_write
;
; mmc1_write(MMC1_CHR1, CHR_BANK_SPRITES); // Pattern Table 1 (sprites) uses sprite tiles
;
	ldx     #$C0
	lda     #$00
	jsr     pushax
	lda     #$03
	jsr     _mmc1_write
;
; bank_spr(1);
;
	lda     #$01
	jsr     _bank_spr
;
; offset = Level_offsets[level];
;
	ldy     _level
	lda     _Level_offsets,y
	sta     _offset
;
; set_data_pointer(Levels_list[offset]);
;
	ldx     #$00
	lda     _offset
	asl     a
	bcc     L001A
	inx
	clc
L001A:	adc     #<(_Levels_list)
	sta     ptr1
	txa
	adc     #>(_Levels_list)
	sta     ptr1+1
	ldy     #$01
	lda     (ptr1),y
	tax
	dey
	lda     (ptr1),y
	jsr     _set_data_pointer
;
; set_mt_pointer(metatiles1);
;
	lda     #<(_metatiles1)
	ldx     #>(_metatiles1)
	jsr     _set_mt_pointer
;
; for(y=0; ;y+=0x20) { 
;
	lda     #$00
L0018:	sta     _y
;
; for(x=0; ;x+=0x20) {
;
	lda     #$00
L0017:	sta     _x
;
; address = get_ppu_addr(0, x, y);
;
	jsr     decsp2
	lda     #$00
	ldy     #$01
	sta     (sp),y
	lda     _x
	dey
	sta     (sp),y
	lda     _y
	jsr     _get_ppu_addr
	sta     _address
	stx     _address+1
;
; index = (y & 0xf0) + (x >> 4);
;
	lda     _y
	and     #$F0
	sta     ptr1
	lda     _x
	lsr     a
	lsr     a
	lsr     a
	lsr     a
	clc
	adc     ptr1
	sta     _index
;
; buffer_4_mt(address, index); // ppu_address, index to the data
;
	lda     _address
	ldx     _address+1
	jsr     pushax
	lda     _index
	jsr     _buffer_4_mt
;
; flush_vram_update2();
;
	jsr     _flush_vram_update2
;
; if (x == 0xe0) break;
;
	lda     _x
	cmp     #$E0
	beq     L001D
;
; for(x=0; ;x+=0x20) {
;
	lda     #$20
	clc
	adc     _x
	jmp     L0017
;
; if (y == 0xe0) break;
;
L001D:	lda     _y
	cmp     #$E0
	beq     L001E
;
; for(y=0; ;y+=0x20) { 
;
	lda     #$20
	clc
	adc     _y
	jmp     L0018
;
; ++offset;
;
L001E:	inc     _offset
;
; set_data_pointer(Levels_list[offset]);
;
	ldx     #$00
	lda     _offset
	asl     a
	bcc     L001B
	inx
	clc
L001B:	adc     #<(_Levels_list)
	sta     ptr1
	txa
	adc     #>(_Levels_list)
	sta     ptr1+1
	ldy     #$01
	lda     (ptr1),y
	tax
	dey
	lda     (ptr1),y
	jsr     _set_data_pointer
;
; for(y=0; ;y+=0x20) { 
;
	lda     #$00
L0019:	sta     _y
;
; x = 0;
;
	lda     #$00
	sta     _x
;
; address = get_ppu_addr(1, x, y);
;
	jsr     decsp2
	lda     #$01
	tay
	sta     (sp),y
	lda     _x
	dey
	sta     (sp),y
	lda     _y
	jsr     _get_ppu_addr
	sta     _address
	stx     _address+1
;
; index = (y & 0xf0) + (x >> 4);
;
	lda     _y
	and     #$F0
	sta     ptr1
	lda     _x
	lsr     a
	lsr     a
	lsr     a
	lsr     a
	clc
	adc     ptr1
	sta     _index
;
; buffer_4_mt(address, index); // ppu_address, index to the data
;
	lda     _address
	ldx     _address+1
	jsr     pushax
	lda     _index
	jsr     _buffer_4_mt
;
; flush_vram_update2();
;
	jsr     _flush_vram_update2
;
; if (y == 0xe0) break;
;
	lda     _y
	cmp     #$E0
	beq     L001F
;
; for(y=0; ;y+=0x20) { 
;
	lda     #$20
	clc
	adc     _y
	jmp     L0019
;
; --offset;
;
L001F:	dec     _offset
;
; memcpy (c_map, Levels_list[offset], 240);
;
	lda     #<(_c_map)
	ldx     #>(_c_map)
	jsr     pushax
	ldx     #$00
	lda     _offset
	asl     a
	bcc     L001C
	inx
	clc
L001C:	adc     #<(_Levels_list)
	sta     ptr1
	txa
	adc     #>(_Levels_list)
	sta     ptr1+1
	ldy     #$01
	lda     (ptr1),y
	tax
	dey
	lda     (ptr1),y
	jsr     pushax
	ldx     #$00
	lda     #$F0
	jsr     _memcpy
;
; sprite_obj_init();
;
	jsr     _sprite_obj_init
;
; NINJA.x = 0x4000;
;
	ldx     #$40
	lda     #$00
	sta     _NINJA
	stx     _NINJA+1
;
; NINJA.y = 0xc400;
;
	ldx     #$C4
	sta     _NINJA+2
	stx     _NINJA+2+1
;
; NINJA.vel_x = 0;
;
	sta     _NINJA+4
	sta     _NINJA+4+1
;
; NINJA.vel_y = 0;
;
	sta     _NINJA+6
	sta     _NINJA+6+1
;
; map_loaded = 0;
;
	sta     _map_loaded
;
; player_health = MAX_HEALTH;
;
	lda     #$0A
	sta     _player_health
;
; damage_cooldown = 0;
;
	lda     #$00
	sta     _damage_cooldown
;
; boss_health = BOSS_MAX_HEALTH;
;
	lda     #$14
	sta     _boss_health
;
; coyote_time = 0;
;
	lda     #$00
	sta     _coyote_time
;
; was_jumping = 0;
;
	sta     _was_jumping
;
; }
;
	rts

.endproc

; ---------------------------------------------------------------
; void __near__ draw_sprites (void)
; ---------------------------------------------------------------

.segment	"CODE"

.proc	_draw_sprites: near

.segment	"CODE"

;
; oam_clear();
;
	jsr     _oam_clear
;
; temp_x = high_byte(NINJA.x);
;
	lda     _NINJA+1
	sta     _temp_x
;
; if (temp_x > 0xfc) temp_x = 1;
;
	cmp     #$FD
	bcc     L002D
	lda     #$01
	sta     _temp_x
;
; if (temp_x == 0) temp_x = 1;
;
L002D:	lda     _temp_x
	bne     L002E
	lda     #$01
	sta     _temp_x
;
; if (direction == LEFT) {
;
L002E:	lda     _direction
	bne     L0004
;
; oam_meta_spr(temp_x, high_byte(NINJA.y), NinjaSprL);
;
	jsr     decsp2
	lda     _temp_x
	ldy     #$01
	sta     (sp),y
	lda     _NINJA+3
	dey
	sta     (sp),y
	lda     #<(_NinjaSprL)
	ldx     #>(_NinjaSprL)
;
; else {
;
	jmp     L0029
;
; oam_meta_spr(temp_x, high_byte(NINJA.y), NinjaSprR);
;
L0004:	jsr     decsp2
	lda     _temp_x
	ldy     #$01
	sta     (sp),y
	lda     _NINJA+3
	dey
	sta     (sp),y
	lda     #<(_NinjaSprR)
	ldx     #>(_NinjaSprR)
L0029:	jsr     _oam_meta_spr
;
; for (index = 0; index < MAX_COINS; ++index) {
;
	lda     #$00
	sta     _index
L002F:	lda     _index
	cmp     #$10
	jcs     L0007
;
; temp_y = coin_y[index];
;
	ldy     _index
	lda     _coin_y,y
	sta     _temp_y
;
; if (temp_y == TURN_OFF) continue;
;
	cmp     #$FF
	beq     L0030
;
; if (!coin_active[index]) continue;
;
	ldy     _index
	lda     _coin_active,y
	beq     L0030
;
; temp_x = coin_x[index];
;
	ldy     _index
	lda     _coin_x,y
	sta     _temp_x
;
; if (temp_x > 0xf0) continue;
;
	cmp     #$F1
	bcs     L0030
;
; temp1 = get_frame_count();
;
	jsr     _get_frame_count
	sta     _temp1
;
; temp1 = (temp1 >> 2) & 7;
;
	lsr     a
	lsr     a
	and     #$07
	sta     _temp1
;
; temp1 = bounce[temp1];
;
	ldy     _temp1
	lda     _bounce,y
	sta     _temp1
;
; temp_y += temp1;
;
	clc
	adc     _temp_y
	sta     _temp_y
;
; if (temp_y < 0xf0) {
;
	cmp     #$F0
	bcs     L0030
;
; if (coin_type[index] == COIN_REG) {
;
	ldy     _index
	lda     _coin_type,y
	cmp     #$02
	bne     L0012
;
; oam_meta_spr(temp_x, temp_y, CoinSpr);
;
	jsr     decsp2
	lda     _temp_x
	ldy     #$01
	sta     (sp),y
	lda     _temp_y
	dey
	sta     (sp),y
	lda     #<(_CoinSpr)
	ldx     #>(_CoinSpr)
;
; else {
;
	jmp     L002A
;
; oam_meta_spr(temp_x, temp_y, BigCoinSpr);
;
L0012:	jsr     decsp2
	lda     _temp_x
	ldy     #$01
	sta     (sp),y
	lda     _temp_y
	dey
	sta     (sp),y
	lda     #<(_BigCoinSpr)
	ldx     #>(_BigCoinSpr)
L002A:	jsr     _oam_meta_spr
;
; for (index = 0; index < MAX_COINS; ++index) {
;
L0030:	inc     _index
	jmp     L002F
;
; offset = get_frame_count() & 3;
;
L0007:	jsr     _get_frame_count
	and     #$03
	sta     _offset
;
; offset = offset << 4; // * 16, the size of the shuffle array
;
	asl     a
	asl     a
	asl     a
	asl     a
	sta     _offset
;
; for (index = 0; index < MAX_ENEMY; ++index) {
;
	lda     #$00
	sta     _index
L0031:	lda     _index
	cmp     #$10
	bcs     L0016
;
; index2 = shuffle_array[offset];
;
	ldy     _offset
	lda     _shuffle_array,y
	sta     _index2
;
; ++offset;
;
	inc     _offset
;
; temp_y = enemy_y[index2];
;
	ldy     _index2
	lda     _enemy_y,y
	sta     _temp_y
;
; if (temp_y == TURN_OFF) continue;
;
	cmp     #$FF
	beq     L0033
;
; if (!enemy_active[index2]) continue;
;
	ldy     _index2
	lda     _enemy_active,y
	beq     L0033
;
; temp_x = enemy_x[index2];
;
	ldy     _index2
	lda     _enemy_x,y
	sta     _temp_x
;
; if (temp_x == 0) temp_x = 1; // problems with x = 0
;
	lda     _temp_x
	bne     L0032
	lda     #$01
	sta     _temp_x
;
; if (temp_x > 0xf0) continue;
;
L0032:	lda     _temp_x
	cmp     #$F1
	bcs     L0033
;
; if (temp_y < 0xf0) {
;
	lda     _temp_y
	cmp     #$F0
	bcs     L0033
;
; oam_meta_spr(temp_x, temp_y, enemy_anim[index2]);
;
	jsr     decsp2
	lda     _temp_x
	ldy     #$01
	sta     (sp),y
	lda     _temp_y
	dey
	sta     (sp),y
	ldx     #$00
	lda     _index2
	asl     a
	bcc     L002C
	inx
	clc
L002C:	adc     #<(_enemy_anim)
	sta     ptr1
	txa
	adc     #>(_enemy_anim)
	sta     ptr1+1
	iny
	lda     (ptr1),y
	tax
	dey
	lda     (ptr1),y
	jsr     _oam_meta_spr
;
; for (index = 0; index < MAX_ENEMY; ++index) {
;
L0033:	inc     _index
	jmp     L0031
;
; draw_turds();
;
L0016:	jsr     _draw_turds
;
; draw_enemy_bullets();
;
	jsr     _draw_enemy_bullets
;
; oam_meta_spr(0x08, 0x10, TurdLifeSpr);
;
	jsr     decsp2
	lda     #$08
	ldy     #$01
	sta     (sp),y
	lda     #$10
	dey
	sta     (sp),y
	lda     #<(_TurdLifeSpr)
	ldx     #>(_TurdLifeSpr)
	jsr     _oam_meta_spr
;
; temp1 = (player_health / 10) + 0xF0;
;
	lda     _player_health
	jsr     pusha0
	lda     #$0A
	jsr     tosudiva0
	clc
	adc     #$F0
	sta     _temp1
;
; temp2 = (player_health % 10) + 0xF0;
;
	lda     _player_health
	jsr     pusha0
	lda     #$0A
	jsr     tosumoda0
	clc
	adc     #$F0
	sta     _temp2
;
; oam_spr(0x16, 0x10, temp1, 1); // Tens digit
;
	jsr     decsp3
	lda     #$16
	ldy     #$02
	sta     (sp),y
	lda     #$10
	dey
	sta     (sp),y
	lda     _temp1
	dey
	sta     (sp),y
	lda     #$01
	jsr     _oam_spr
;
; oam_spr(0x1F, 0x10, temp2, 1); // Ones digit
;
	jsr     decsp3
	lda     #$1F
	ldy     #$02
	sta     (sp),y
	lda     #$10
	dey
	sta     (sp),y
	lda     _temp2
	dey
	sta     (sp),y
	lda     #$01
	jsr     _oam_spr
;
; if (corn_mode) {
;
	lda     _corn_mode
	beq     L0024
;
; oam_meta_spr(0xDD, 0x10, CornSelectedSpr);
;
	jsr     decsp2
	lda     #$DD
	ldy     #$01
	sta     (sp),y
	lda     #$10
	dey
	sta     (sp),y
	lda     #<(_CornSelectedSpr)
	ldx     #>(_CornSelectedSpr)
;
; else {
;
	jmp     L002B
;
; oam_meta_spr(0xDD, 0x10, CoinSpr);
;
L0024:	jsr     decsp2
	lda     #$DD
	ldy     #$01
	sta     (sp),y
	lda     #$10
	dey
	sta     (sp),y
	lda     #<(_CoinSpr)
	ldx     #>(_CoinSpr)
L002B:	jsr     _oam_meta_spr
;
; temp1 = (coins / 10) + 0xF0; // Convert to tile number
;
	lda     _coins
	jsr     pusha0
	lda     #$0A
	jsr     tosudiva0
	clc
	adc     #$F0
	sta     _temp1
;
; temp2 = (coins % 10) + 0xF0;
;
	lda     _coins
	jsr     pusha0
	lda     #$0A
	jsr     tosumoda0
	clc
	adc     #$F0
	sta     _temp2
;
; oam_spr(0xE8, 0x10, temp1, 1); // Tens digit
;
	jsr     decsp3
	lda     #$E8
	ldy     #$02
	sta     (sp),y
	lda     #$10
	dey
	sta     (sp),y
	lda     _temp1
	dey
	sta     (sp),y
	lda     #$01
	jsr     _oam_spr
;
; oam_spr(0xF0, 0x10, temp2, 1); // Ones digit
;
	jsr     decsp3
	lda     #$F0
	ldy     #$02
	sta     (sp),y
	lda     #$10
	dey
	sta     (sp),y
	lda     _temp2
	dey
	sta     (sp),y
	lda     #$01
	jmp     _oam_spr

.endproc

; ---------------------------------------------------------------
; void __near__ movement (void)
; ---------------------------------------------------------------

.segment	"CODE"

.proc	_movement: near

.segment	"CODE"

;
; old_x = NINJA.x;
;
	jsr     decsp6
	lda     _NINJA
	ldx     _NINJA+1
	ldy     #$03
	jsr     staxysp
;
; if (pad1 & PAD_LEFT) {
;
	lda     _pad1
	and     #$02
	beq     L005F
;
; if (!(pad1 & PAD_B)) {
;
	lda     _pad1
	and     #$40
	bne     L0003
;
; direction = LEFT;
;
	sta     _direction
;
; if (NINJA.vel_x >= DECEL) {
;
L0003:	lda     _NINJA+4
	cmp     #$32
	lda     _NINJA+4+1
	sbc     #$00
	bvs     L0005
	eor     #$80
L0005:	bpl     L0004
;
; NINJA.vel_x -= DECEL;
;
	lda     _NINJA+4
	sec
	sbc     #$32
	sta     _NINJA+4
	jcs     L0022
	dec     _NINJA+4+1
;
; else if (NINJA.vel_x > 0) {
;
	jmp     L0022
L0004:	lda     _NINJA+4
	cmp     #$01
	lda     _NINJA+4+1
	sbc     #$00
	bvs     L0009
	eor     #$80
L0009:	bpl     L0008
;
; NINJA.vel_x = 0;
;
	ldx     #$00
	txa
;
; else {
;
	jmp     L0061
;
; NINJA.vel_x -= ACCEL;
;
L0008:	lda     _NINJA+4
	sec
	sbc     #$1E
	sta     _NINJA+4
	bcs     L000B
	dec     _NINJA+4+1
;
; if (NINJA.vel_x < -MAX_SPEED) NINJA.vel_x = -MAX_SPEED;
;
L000B:	lda     _NINJA+4
	cmp     #$C0
	lda     _NINJA+4+1
	sbc     #$FD
	bvc     L000D
	eor     #$80
L000D:	jpl     L0022
	ldx     #$FD
	lda     #$C0
;
; else if (pad1 & PAD_RIGHT) {
;
	jmp     L0061
L005F:	lda     _pad1
	and     #$01
	beq     L000F
;
; if (!(pad1 & PAD_B)) {
;
	lda     _pad1
	and     #$40
	bne     L0010
;
; direction = RIGHT;
;
	lda     #$01
	sta     _direction
;
; if (NINJA.vel_x <= DECEL) {
;
L0010:	lda     _NINJA+4
	cmp     #$33
	lda     _NINJA+4+1
	sbc     #$00
	bvc     L0012
	eor     #$80
L0012:	bpl     L0011
;
; NINJA.vel_x += DECEL;
;
	lda     #$32
	clc
	adc     _NINJA+4
	sta     _NINJA+4
	jcc     L0022
	inc     _NINJA+4+1
;
; else if (NINJA.vel_x < 0) {
;
	jmp     L0022
L0011:	ldx     _NINJA+4+1
	cpx     #$80
	bcc     L0015
;
; NINJA.vel_x = 0;
;
	ldx     #$00
	txa
;
; else {
;
	jmp     L0061
;
; NINJA.vel_x += ACCEL;
;
L0015:	lda     #$1E
	clc
	adc     _NINJA+4
	sta     _NINJA+4
	bcc     L0017
	inc     _NINJA+4+1
;
; if (NINJA.vel_x >= MAX_SPEED) NINJA.vel_x = MAX_SPEED;
;
L0017:	lda     _NINJA+4
	cmp     #$40
	lda     _NINJA+4+1
	sbc     #$02
	bvs     L0019
	eor     #$80
L0019:	bpl     L0022
	ldx     #$02
	lda     #$40
;
; else { // nothing pressed
;
	jmp     L0061
;
; if (NINJA.vel_x >= ACCEL) NINJA.vel_x -= ACCEL;
;
L000F:	lda     _NINJA+4
	cmp     #$1E
	lda     _NINJA+4+1
	sbc     #$00
	bvs     L001C
	eor     #$80
L001C:	bpl     L001B
	lda     _NINJA+4
	sec
	sbc     #$1E
	sta     _NINJA+4
	bcs     L0022
	dec     _NINJA+4+1
;
; else if (NINJA.vel_x < -ACCEL) NINJA.vel_x += ACCEL;
;
	jmp     L0022
L001B:	lda     _NINJA+4
	cmp     #$E2
	lda     _NINJA+4+1
	sbc     #$FF
	bvc     L0020
	eor     #$80
L0020:	asl     a
	lda     #$00
	tax
	bcc     L0061
	lda     #$1E
	clc
	adc     _NINJA+4
	sta     _NINJA+4
	bcc     L0022
	inc     _NINJA+4+1
;
; else NINJA.vel_x = 0;
;
	jmp     L0022
L0061:	sta     _NINJA+4
	stx     _NINJA+4+1
;
; NINJA.x += NINJA.vel_x;
;
L0022:	lda     _NINJA+4
	clc
	adc     _NINJA
	sta     _NINJA
	lda     _NINJA+4+1
	adc     _NINJA+1
	sta     _NINJA+1
;
; if (NINJA.x > 0xf000) { // too far, don't wrap around
;
	lda     _NINJA
	cmp     #$01
	lda     _NINJA+1
	sbc     #$F0
	bcc     L0064
;
; if (old_x >= 0x8000) {
;
	ldy     #$04
	lda     (sp),y
	tax
	dey
	lda     (sp),y
	cmp     #$00
	txa
	sbc     #$80
	lda     #$00
	tax
	bcc     L0063
;
; NINJA.x = 0xf000; // max right
;
	ldx     #$F0
;
; NINJA.x = 0x0000; // max left
;
L0063:	sta     _NINJA
	stx     _NINJA+1
;
; NINJA.vel_x = 0;
;
	sta     _NINJA+4
	sta     _NINJA+4+1
;
; ENTITY1.x = high_byte(NINJA.x); // this is much faster than passing a pointer to NINJA
;
L0064:	lda     _NINJA+1
	sta     _ENTITY1
;
; ENTITY1.y = high_byte(NINJA.y);
;
	lda     _NINJA+3
	sta     _ENTITY1+1
;
; ENTITY1.width = HERO_WIDTH;
;
	lda     #$0D
	sta     _ENTITY1+2
;
; ENTITY1.height = HERO_HEIGHT;
;
	lda     #$0B
	sta     _ENTITY1+3
;
; if (NINJA.vel_x < 0) {
;
	ldx     _NINJA+4+1
	cpx     #$80
	bcc     L0026
;
; if (bg_coll_L() ) { // check collision left
;
	jsr     _bg_coll_L
	tax
	beq     L002D
;
; high_byte(NINJA.x) = high_byte(NINJA.x) - eject_L;
;
	lda     _NINJA+1
	sec
	sbc     _eject_L
	sta     _NINJA+1
;
; NINJA.vel_x = 0;
;
	lda     #$00
	sta     _NINJA+4
	sta     _NINJA+4+1
;
; if (NINJA.x > 0xf000) {
;
	lda     _NINJA
	cmp     #$01
	lda     _NINJA+1
	sbc     #$F0
	bcc     L002D
;
; NINJA.x = 0xf000;
;
	ldx     #$F0
;
; else if (NINJA.vel_x > 0) {
;
	jmp     L007A
L0026:	lda     _NINJA+4
	cmp     #$01
	lda     _NINJA+4+1
	sbc     #$00
	bvs     L002B
	eor     #$80
L002B:	bpl     L002D
;
; if (bg_coll_R() ) { // check collision right
;
	jsr     _bg_coll_R
	tax
	beq     L002D
;
; high_byte(NINJA.x) = high_byte(NINJA.x) - eject_R;
;
	lda     _NINJA+1
	sec
	sbc     _eject_R
	sta     _NINJA+1
;
; NINJA.vel_x = 0;
;
	lda     #$00
	sta     _NINJA+4
	sta     _NINJA+4+1
;
; if (NINJA.x > 0xf000) {
;
	lda     _NINJA
	cmp     #$01
	lda     _NINJA+1
	sbc     #$F0
	bcc     L002D
;
; NINJA.x = 0x0000;
;
	ldx     #$00
L007A:	lda     #$00
	sta     _NINJA
	stx     _NINJA+1
;
; if (NINJA.vel_y < 0x300) {
;
L002D:	lda     _NINJA+6
	cmp     #$00
	lda     _NINJA+6+1
	sbc     #$03
	bvc     L002F
	eor     #$80
L002F:	bpl     L002E
;
; NINJA.vel_y += GRAVITY;
;
	lda     #$4C
	clc
	adc     _NINJA+6
	sta     _NINJA+6
	bcc     L0031
	inc     _NINJA+6+1
;
; else {
;
	jmp     L0031
;
; NINJA.vel_y = 0x300; // terminal velocity
;
L002E:	ldx     #$03
	lda     #$00
	sta     _NINJA+6
	stx     _NINJA+6+1
;
; NINJA.y += NINJA.vel_y;
;
L0031:	lda     _NINJA+6
	clc
	adc     _NINJA+2
	sta     _NINJA+2
	lda     _NINJA+6+1
	adc     _NINJA+2+1
	sta     _NINJA+2+1
;
; ENTITY1.x = high_byte(NINJA.x);
;
	lda     _NINJA+1
	sta     _ENTITY1
;
; ENTITY1.y = high_byte(NINJA.y);
;
	lda     _NINJA+3
	sta     _ENTITY1+1
;
; if (NINJA.vel_y > 0) {
;
	lda     _NINJA+6
	cmp     #$01
	lda     _NINJA+6+1
	sbc     #$00
	bvs     L0033
	eor     #$80
L0033:	bpl     L0032
;
; if (bg_coll_D()) { // check collision below
;
	jsr     _bg_coll_D
	tax
	beq     L0037
;
; high_byte(NINJA.y) = high_byte(NINJA.y) - eject_D;
;
	lda     _NINJA+3
	sec
	sbc     _eject_D
	sta     _NINJA+3
;
; NINJA.y &= 0xff00;
;
	ldx     _NINJA+2+1
	lda     #$00
	sta     _NINJA+2
	stx     _NINJA+2+1
;
; else if (NINJA.vel_y < 0) {
;
	jmp     L0078
L0032:	ldx     _NINJA+6+1
	cpx     #$80
	bcc     L0037
;
; if (bg_coll_U()) { // check collision above
;
	jsr     _bg_coll_U
	tax
	beq     L0037
;
; high_byte(NINJA.y) = high_byte(NINJA.y) - eject_U;
;
	lda     _NINJA+3
	sec
	sbc     _eject_U
	sta     _NINJA+3
;
; NINJA.vel_y = 0;
;
	lda     #$00
L0078:	sta     _NINJA+6
	sta     _NINJA+6+1
;
; can_jump = bg_coll_D2();
;
L0037:	jsr     _bg_coll_D2
	ldy     #$05
	sta     (sp),y
;
; if (can_jump) {
;
	lda     (sp),y
	beq     L0038
;
; coyote_time = 5; // Reset coyote time when on ground
;
	sty     _coyote_time
;
; } else if (coyote_time > 0) {
;
	jmp     L0065
L0038:	lda     _coyote_time
	beq     L0065
;
; --coyote_time;
;
	dec     _coyote_time
;
; can_jump = 1; // Allow jumping during coyote time
;
	lda     #$01
	sta     (sp),y
;
; if (pad1 & PAD_A) {
;
L0065:	lda     _pad1
	and     #$80
	beq     L006A
;
; if (can_jump && !was_jumping) {
;
	lda     (sp),y
	beq     L0040
	lda     _was_jumping
	bne     L0040
;
; NINJA.vel_y = JUMP_VEL;
;
	ldx     #$FA
	sta     _NINJA+6
	stx     _NINJA+6+1
;
; sfx_play(SFX_JUMP, 0);
;
	jsr     pusha
	jsr     _sfx_play
;
; was_jumping = 1;
;
	lda     #$01
;
; was_jumping = 0;
;
L006A:	sta     _was_jumping
;
; if ((scroll_x & 0xff) < 4) {
;
L0040:	lda     _scroll_x
	cmp     #$04
	bcs     L006B
;
; if (!map_loaded) {
;
	lda     _map_loaded
	bne     L0044
;
; new_cmap();
;
	jsr     _new_cmap
;
; map_loaded = 1; // only do once
;
	lda     #$01
;
; else {
;
	jmp     L005D
;
; map_loaded = 0;
;
L006B:	lda     #$00
L005D:	sta     _map_loaded
;
; temp5 = NINJA.x;
;
L0044:	lda     _NINJA
	ldx     _NINJA+1
	ldy     #$01
	jsr     staxysp
;
; if (NINJA.x > MAX_RIGHT) {
;
	lda     _NINJA
	cmp     #$01
	lda     _NINJA+1
	sbc     #$90
	bcc     L0045
;
; temp1 = (NINJA.x - MAX_RIGHT) >> 8;
;
	lda     _NINJA+1
	sec
	sbc     #$90
	ldy     #$00
	sta     (sp),y
;
; if (temp1 > 3) temp1 = 3; // max scroll change
;
	cmp     #$04
	bcc     L006D
	lda     #$03
	sta     (sp),y
;
; scroll_x += temp1;
;
L006D:	lda     (sp),y
	clc
	adc     _scroll_x
	sta     _scroll_x
	tya
	adc     _scroll_x+1
	sta     _scroll_x+1
;
; high_byte(NINJA.x) = high_byte(NINJA.x) - temp1;
;
	lda     _NINJA+1
	sec
	sbc     (sp),y
	sta     _NINJA+1
;
; if (scroll_x >= MAX_SCROLL) {
;
L0045:	lda     _scroll_x
	cmp     #$FF
	lda     _scroll_x+1
	sbc     #$06
	bcc     L006E
;
; scroll_x = MAX_SCROLL; // stop scrolling right, end of level
;
	ldx     #$06
	lda     #$FF
	sta     _scroll_x
	stx     _scroll_x+1
;
; NINJA.x = temp5; // but allow the x position to go all the way right
;
	ldy     #$02
	lda     (sp),y
	sta     _NINJA+1
	dey
	lda     (sp),y
	sta     _NINJA
;
; if (high_byte(NINJA.x) >= 0xf1) {
;
	lda     _NINJA+1
	cmp     #$F1
	bcc     L006E
;
; NINJA.x = 0xf100;
;
	ldx     #$F1
	lda     #$00
	sta     _NINJA
	stx     _NINJA+1
;
; if (turd_cooldown > 0) {
;
L006E:	lda     _turd_cooldown
	beq     L006F
;
; --turd_cooldown;
;
	dec     _turd_cooldown
;
; if (pad1_new & PAD_SELECT) {
;
L006F:	lda     _pad1_new
	and     #$20
	beq     L004A
;
; corn_mode = !corn_mode; // Toggle between 0 and 1
;
	lda     _corn_mode
	jsr     bnega
	sta     _corn_mode
;
; sfx_play(SFX_DING, 0); // Play a sound to indicate mode change
;
	lda     #$01
	jsr     pusha
	lda     #$00
	jsr     _sfx_play
;
; if (corn_mode && coins == 0) {
;
L004A:	lda     _corn_mode
	beq     L004B
	lda     _coins
	bne     L004B
;
; corn_mode = 0;
;
	sta     _corn_mode
;
; sfx_play(SFX_DING, 0); // Play a sound to indicate mode change
;
	lda     #$01
	jsr     pusha
	lda     #$00
	jsr     _sfx_play
;
; if (has_turd_power && (pad1 & PAD_B) && turd_cooldown == 0) {
;
L004B:	lda     _has_turd_power
	beq     L0058
	lda     _pad1
	and     #$40
	beq     L0058
	lda     _turd_cooldown
	bne     L0058
;
; if (corn_mode && coins > 0) {
;
	lda     _corn_mode
	beq     L0053
	lda     _coins
	beq     L0053
;
; fire_turd();
;
	jsr     _fire_turd
;
; --coins; // Use one corn
;
	dec     _coins
;
; } else if (!corn_mode) {
;
	jmp     L0079
L0053:	lda     _corn_mode
	bne     L0058
;
; fire_turd();
;
	jsr     _fire_turd
;
; turd_cooldown = TURD_COOLDOWN;
;
L0079:	lda     #$14
	sta     _turd_cooldown
;
; update_turds();
;
L0058:	jsr     _update_turds
;
; } 
;
	jmp     incsp6

.endproc

; ---------------------------------------------------------------
; void __near__ draw_screen_R (void)
; ---------------------------------------------------------------

.segment	"CODE"

.proc	_draw_screen_R: near

.segment	"CODE"

;
; pseudo_scroll_x = scroll_x + 0x120;
;
	lda     _scroll_x
	ldx     _scroll_x+1
	clc
	adc     #$20
	bcc     L0002
	inx
L0002:	inx
	sta     _pseudo_scroll_x
	stx     _pseudo_scroll_x+1
;
; temp1 = pseudo_scroll_x >> 8;
;
	lda     _pseudo_scroll_x+1
	sta     _temp1
;
; offset = Level_offsets[level];
;
	ldy     _level
	lda     _Level_offsets,y
	sta     _offset
;
; offset += temp1;
;
	lda     _temp1
	clc
	adc     _offset
	sta     _offset
;
; set_data_pointer(Levels_list[offset]);
;
	ldx     #$00
	lda     _offset
	asl     a
	bcc     L0013
	inx
	clc
L0013:	adc     #<(_Levels_list)
	sta     ptr1
	txa
	adc     #>(_Levels_list)
	sta     ptr1+1
	ldy     #$01
	lda     (ptr1),y
	tax
	dey
	lda     (ptr1),y
	jsr     _set_data_pointer
;
; nt = temp1 & 1;
;
	lda     _temp1
	and     #$01
	sta     _nt
;
; x = pseudo_scroll_x & 0xff;
;
	lda     _pseudo_scroll_x
	sta     _x
;
; switch(scroll_count) {
;
	lda     _scroll_count
;
; }
;
	beq     L0006
	cmp     #$01
	beq     L0008
	cmp     #$02
	jeq     L000B
	jmp     L000E
;
; address = get_ppu_addr(nt, x, 0);
;
L0006:	jsr     decsp2
	lda     _nt
	ldy     #$01
	sta     (sp),y
	lda     _x
	dey
	sta     (sp),y
	tya
	jsr     _get_ppu_addr
	sta     _address
	stx     _address+1
;
; index = 0 + (x >> 4);
;
	lda     _x
	lsr     a
	lsr     a
	lsr     a
	lsr     a
	sta     _index
;
; buffer_4_mt(address, index); // ppu_address, index to the data
;
	lda     _address
	ldx     _address+1
	jsr     pushax
	lda     _index
	jsr     _buffer_4_mt
;
; address = get_ppu_addr(nt, x, 0x20);
;
	jsr     decsp2
	lda     _nt
	ldy     #$01
	sta     (sp),y
	lda     _x
	dey
	sta     (sp),y
	lda     #$20
	jsr     _get_ppu_addr
	sta     _address
	stx     _address+1
;
; index = 0x20 + (x >> 4);
;
	lda     _x
	lsr     a
	lsr     a
	lsr     a
	lsr     a
	clc
	adc     #$20
;
; break;
;
	jmp     L0018
;
; address = get_ppu_addr(nt, x, 0x40);
;
L0008:	jsr     decsp2
	lda     _nt
	ldy     #$01
	sta     (sp),y
	lda     _x
	dey
	sta     (sp),y
	lda     #$40
	jsr     _get_ppu_addr
	sta     _address
	stx     _address+1
;
; index = 0x40 + (x >> 4);
;
	lda     _x
	lsr     a
	lsr     a
	lsr     a
	lsr     a
	clc
	adc     #$40
	sta     _index
;
; buffer_4_mt(address, index); // ppu_address, index to the data
;
	lda     _address
	ldx     _address+1
	jsr     pushax
	lda     _index
	jsr     _buffer_4_mt
;
; address = get_ppu_addr(nt, x, 0x60);
;
	jsr     decsp2
	lda     _nt
	ldy     #$01
	sta     (sp),y
	lda     _x
	dey
	sta     (sp),y
	lda     #$60
	jsr     _get_ppu_addr
	sta     _address
	stx     _address+1
;
; index = 0x60 + (x >> 4);
;
	lda     _x
	lsr     a
	lsr     a
	lsr     a
	lsr     a
	clc
	adc     #$60
;
; break;
;
	jmp     L0018
;
; address = get_ppu_addr(nt, x, 0x80);
;
L000B:	jsr     decsp2
	lda     _nt
	ldy     #$01
	sta     (sp),y
	lda     _x
	dey
	sta     (sp),y
	lda     #$80
	jsr     _get_ppu_addr
	sta     _address
	stx     _address+1
;
; index = 0x80 + (x >> 4);
;
	lda     _x
	lsr     a
	lsr     a
	lsr     a
	lsr     a
	clc
	adc     #$80
	sta     _index
;
; buffer_4_mt(address, index); // ppu_address, index to the data
;
	lda     _address
	ldx     _address+1
	jsr     pushax
	lda     _index
	jsr     _buffer_4_mt
;
; address = get_ppu_addr(nt, x, 0xa0);
;
	jsr     decsp2
	lda     _nt
	ldy     #$01
	sta     (sp),y
	lda     _x
	dey
	sta     (sp),y
	lda     #$A0
	jsr     _get_ppu_addr
	sta     _address
	stx     _address+1
;
; index = 0xa0 + (x >> 4);
;
	lda     _x
	lsr     a
	lsr     a
	lsr     a
	lsr     a
	clc
	adc     #$A0
;
; break;
;
	jmp     L0018
;
; address = get_ppu_addr(nt, x, 0xc0);
;
L000E:	jsr     decsp2
	lda     _nt
	ldy     #$01
	sta     (sp),y
	lda     _x
	dey
	sta     (sp),y
	lda     #$C0
	jsr     _get_ppu_addr
	sta     _address
	stx     _address+1
;
; index = 0xc0 + (x >> 4);
;
	lda     _x
	lsr     a
	lsr     a
	lsr     a
	lsr     a
	clc
	adc     #$C0
	sta     _index
;
; buffer_4_mt(address, index); // ppu_address, index to the data
;
	lda     _address
	ldx     _address+1
	jsr     pushax
	lda     _index
	jsr     _buffer_4_mt
;
; address = get_ppu_addr(nt, x, 0xe0);
;
	jsr     decsp2
	lda     _nt
	ldy     #$01
	sta     (sp),y
	lda     _x
	dey
	sta     (sp),y
	lda     #$E0
	jsr     _get_ppu_addr
	sta     _address
	stx     _address+1
;
; index = 0xe0 + (x >> 4);
;
	lda     _x
	lsr     a
	lsr     a
	lsr     a
	lsr     a
	clc
	adc     #$E0
L0018:	sta     _index
;
; buffer_4_mt(address, index); // ppu_address, index to the data
;
	lda     _address
	ldx     _address+1
	jsr     pushax
	lda     _index
	jsr     _buffer_4_mt
;
; ++scroll_count;
;
	inc     _scroll_count
;
; scroll_count &= 3; //mask off top bits, keep it 0-3
;
	lda     _scroll_count
	and     #$03
	sta     _scroll_count
;
; }
;
	rts

.endproc

; ---------------------------------------------------------------
; void __near__ new_cmap (void)
; ---------------------------------------------------------------

.segment	"CODE"

.proc	_new_cmap: near

.segment	"CODE"

;
; room = ((scroll_x >> 8) +1); //high byte = room, one to the right
;
	lda     _scroll_x+1
	clc
	adc     #$01
	sta     _room
;
; offset = Level_offsets[level];
;
	ldy     _level
	lda     _Level_offsets,y
	sta     _offset
;
; offset += room;
;
	lda     _room
	clc
	adc     _offset
	sta     _offset
;
; map = room & 1; //even or odd?
;
	lda     _room
	and     #$01
	sta     _map
;
; if (!map) {
;
	lda     _map
	bne     L0004
;
; memcpy (c_map, Levels_list[offset], 240);
;
	lda     #<(_c_map)
	ldx     #>(_c_map)
;
; else {
;
	jmp     L001D
;
; memcpy (c_map2, Levels_list[offset], 240);
;
L0004:	lda     #<(_c_map2)
	ldx     #>(_c_map2)
L001D:	jsr     pushax
	ldx     #$00
	lda     _offset
	asl     a
	bcc     L000A
	inx
	clc
L000A:	adc     #<(_Levels_list)
	sta     ptr1
	txa
	adc     #>(_Levels_list)
	sta     ptr1+1
	ldy     #$01
	lda     (ptr1),y
	tax
	dey
	lda     (ptr1),y
	jsr     pushax
	ldx     #$00
	lda     #$F0
	jmp     _memcpy

.endproc

; ---------------------------------------------------------------
; char __near__ bg_collision_sub (void)
; ---------------------------------------------------------------

.segment	"CODE"

.proc	_bg_collision_sub: near

.segment	"CODE"

;
; if (temp_y >= 0xf0) return 0;
;
	lda     _temp_y
	cmp     #$F0
	lda     #$00
	tax
	bcc     L0039
;
; }
;
	rts
;
; coordinates = (temp_x >> 4) + (temp_y & 0xf0);
;
L0039:	lda     _temp_x
	lsr     a
	lsr     a
	lsr     a
	lsr     a
	sta     ptr1
	lda     _temp_y
	and     #$F0
	clc
	adc     ptr1
	sta     _coordinates
;
; map = temp_room&1; // high byte
;
	lda     _temp_room
	and     #$01
	sta     _map
;
; if (!map) {
;
	lda     _map
	bne     L0003
;
; temp1 = c_map[coordinates];
;
	ldy     _coordinates
	lda     _c_map,y
;
; else {
;
	jmp     L002A
;
; temp1 = c_map2[coordinates];
;
L0003:	ldy     _coordinates
	lda     _c_map2,y
L002A:	sta     _temp1
;
; if (IS_SOLID(temp1)) {
;
	and     #$07
	cmp     #$06
	txa
	sbc     #$00
	bvs     L0008
	eor     #$80
L0008:	bpl     L002C
;
; return COLLISION_SOLID;  // Solid collision from all sides
;
	lda     #$40
	rts
;
; else if (IS_PLATFORM(temp1)) {
;
L002C:	lda     _temp1
	and     #$07
	cmp     #$04
	txa
	sbc     #$00
	bvs     L000B
	eor     #$80
L000B:	asl     a
	txa
	bcs     L003A
;
; }
;
	rts
;
; else if (IS_PLATFORM(temp1)) {
;
L003A:	lda     _temp1
	and     #$07
	cmp     #$06
	txa
	sbc     #$00
	bvc     L000D
	eor     #$80
L000D:	jpl     L0029
;
; if (ENTITY1.width == HERO_WIDTH) {  // This is the ninja
;
	lda     _ENTITY1+2
	cmp     #$0D
	bne     L0030
;
; if (NINJA.vel_y > 0) {
;
	lda     _NINJA+6
	cmp     #$01
	lda     _NINJA+6+1
	sbc     #$00
	bvs     L0012
	eor     #$80
L0012:	bpl     L0029
;
; return COLLISION_PLATFORM;
;
	lda     #$20
	rts
;
; else if (ENTITY1.width == TURD_WIDTH) {  // This is a turd
;
L0030:	lda     _ENTITY1+2
	cmp     #$07
	bne     L0031
;
; if (turd_vel_y[index] > 0) {
;
	lda     #<(_turd_vel_y)
	ldx     #>(_turd_vel_y)
	clc
	adc     _index
	bcc     L0016
	inx
L0016:	ldy     #$00
	jsr     ldaidx
	sec
	sbc     #$01
	bvs     L0017
	eor     #$80
L0017:	asl     a
	ldx     #$00
	bcc     L0029
;
; return COLLISION_PLATFORM;
;
	lda     #$20
	rts
;
; else if (ENTITY1.width == ENEMY_BULLET_WIDTH) {  // This is an enemy bullet
;
L0031:	lda     _ENTITY1+2
	cmp     #$0D
	bne     L0029
;
; for (index2 = 0; index2 < MAX_ENEMY_BULLETS; ++index2) {
;
	stx     _index2
L0032:	lda     _index2
	cmp     #$08
	bcs     L0029
;
; if (enemy_bullet_active[index2] && 
;
	ldy     _index2
	lda     _enemy_bullet_active,y
	beq     L0036
;
; enemy_bullet_x[index2] == ENTITY1.x && 
;
	ldy     _index2
	lda     _enemy_bullet_x,y
	cmp     _ENTITY1
	bne     L0036
;
; enemy_bullet_y[index2] == ENTITY1.y) {
;
	ldy     _index2
	lda     _enemy_bullet_y,y
	cmp     _ENTITY1+1
	bne     L0036
;
; if (enemy_bullet_vel_y[index2] > 0) {
;
	lda     #<(_enemy_bullet_vel_y)
	ldx     #>(_enemy_bullet_vel_y)
	clc
	adc     _index2
	bcc     L0026
	inx
L0026:	ldy     #$00
	jsr     ldaidx
	sec
	sbc     #$01
	bvs     L0027
	eor     #$80
L0027:	asl     a
	ldx     #$00
	bcc     L0029
;
; return COLLISION_PLATFORM;
;
	lda     #$20
	rts
;
; for (index2 = 0; index2 < MAX_ENEMY_BULLETS; ++index2) {
;
L0036:	inc     _index2
	jmp     L0032
;
; return 0;  // No collision with background tiles
;
L0029:	lda     #$00
;
; }
;
	rts

.endproc

; ---------------------------------------------------------------
; char __near__ get_position (void)
; ---------------------------------------------------------------

.segment	"CODE"

.proc	_get_position: near

.segment	"CODE"

;
; temp5 -= scroll_x;
;
	lda     _scroll_x
	eor     #$FF
	sec
	adc     _temp5
	sta     _temp5
	lda     _scroll_x+1
	eor     #$FF
	adc     _temp5+1
	sta     _temp5+1
;
; temp_x = temp5 & 0xff;
;
	lda     _temp5
	ldx     #$00
	sta     _temp_x
;
; if (high_byte(temp5)) return 0;
;
	lda     _temp5+1
	beq     L0003
	txa
	rts
;
; return 1;
;
L0003:	lda     #$01
;
; }
;
	rts

.endproc

; ---------------------------------------------------------------
; void __near__ enemy_moves (void)
; ---------------------------------------------------------------

.segment	"CODE"

.proc	_enemy_moves: near

.segment	"CODE"

;
; if (enemy_type[index] == ENEMY_BOSS1) {
;
	jsr     decsp2
	ldy     _index
	lda     _enemy_type,y
	cmp     #$10
	jne     L0002
;
; ENTITY1.x = enemy_x[index];
;
	ldy     _index
	lda     _enemy_x,y
	sta     _ENTITY1
;
; ENTITY1.y = enemy_y[index] + 28; // Bottom of the boss (32px height - 4px for safety)
;
	ldy     _index
	lda     _enemy_y,y
	clc
	adc     #$1C
	sta     _ENTITY1+1
;
; ENTITY1.width = 28; 
;
	lda     #$1C
	sta     _ENTITY1+2
;
; ENTITY1.height = 4; // Just check the bottom 4 pixels for ground collision
;
	lda     #$04
	sta     _ENTITY1+3
;
; if (enemy_frames & 1) return; // half speed
;
	lda     _enemy_frames
	and     #$01
	jne     L0084
;
; temp1 = enemy_frames + (index << 3);
;
	lda     _index
	asl     a
	asl     a
	asl     a
	clc
	adc     _enemy_frames
	sta     _temp1
;
; temp1 &= 0x3f;
;
	and     #$3F
	sta     _temp1
;
; if (temp1 < 8) { // stand still
;
	cmp     #$08
	bcs     L00B6
;
; if (enemy_x[index] > ENTITY2.x) {
;
	ldy     _index
	ldx     #$00
	lda     _enemy_x,y
	cmp     _ENTITY2
	bcc     L00B5
	beq     L00B5
;
; enemy_anim[index] = Boss1SprL; // Use left-facing sprite
;
	lda     _index
	asl     a
	bcc     L00A2
	inx
	clc
L00A2:	adc     #<(_enemy_anim)
	sta     ptr1
	txa
	adc     #>(_enemy_anim)
	sta     ptr1+1
	lda     #<(_Boss1SprL)
	ldy     #$00
	sta     (ptr1),y
	iny
	lda     #>(_Boss1SprL)
;
; } else {
;
	jmp     L00C6
;
; enemy_anim[index] = Boss1SprR; // Use right-facing sprite
;
L00B5:	lda     _index
	asl     a
	bcc     L00A3
	inx
	clc
L00A3:	adc     #<(_enemy_anim)
	sta     ptr1
	txa
	adc     #>(_enemy_anim)
	sta     ptr1+1
	lda     #<(_Boss1SprR)
	ldy     #$00
	sta     (ptr1),y
	iny
	lda     #>(_Boss1SprR)
L00C6:	sta     (ptr1),y
;
; if (enemy_bullet_cooldown[index] == 0) {
;
	ldy     _index
	lda     _enemy_bullet_cooldown,y
	jne     L000E
;
; fire_enemy_bullet(index, BULLET_LINEAR);
;
	lda     _index
	jsr     pusha
	lda     #$00
	jsr     _fire_enemy_bullet
;
; else if (temp1 < 14) {
;
	jmp     L000E
L00B6:	lda     _temp1
	cmp     #$0E
	bcs     L00B8
;
; --enemy_y[index]; // jump
;
	lda     #<(_enemy_y)
	ldx     #>(_enemy_y)
	clc
	adc     _index
	bcc     L0010
	inx
L0010:	sta     ptr1
	stx     ptr1+1
	ldy     #$00
	lda     (ptr1),y
	sec
	sbc     #$01
	sta     (ptr1),y
;
; --enemy_y[index]; // jump faster
;
	lda     #<(_enemy_y)
	ldx     #>(_enemy_y)
	clc
	adc     _index
	bcc     L0011
	inx
L0011:	sta     ptr1
	stx     ptr1+1
	lda     (ptr1),y
	sec
	sbc     #$01
	sta     (ptr1),y
;
; if (enemy_x[index] > ENTITY2.x) {
;
	ldy     _index
	ldx     #$00
	lda     _enemy_x,y
	cmp     _ENTITY2
	bcc     L00B7
	beq     L00B7
;
; enemy_anim[index] = Boss1SprL;
;
	lda     _index
	asl     a
	bcc     L00A4
	inx
	clc
L00A4:	adc     #<(_enemy_anim)
	sta     ptr1
	txa
	adc     #>(_enemy_anim)
	sta     ptr1+1
	lda     #<(_Boss1SprL)
	ldy     #$00
	sta     (ptr1),y
	iny
	lda     #>(_Boss1SprL)
	sta     (ptr1),y
;
; } else {
;
	jmp     L000E
;
; enemy_anim[index] = Boss1SprR;
;
L00B7:	lda     _index
	asl     a
	bcc     L00A5
	inx
	clc
L00A5:	adc     #<(_enemy_anim)
	sta     ptr1
	txa
	adc     #>(_enemy_anim)
	sta     ptr1+1
	lda     #<(_Boss1SprR)
	ldy     #$00
	sta     (ptr1),y
	iny
	lda     #>(_Boss1SprR)
	sta     (ptr1),y
;
; else if (temp1 < 24) {
;
	jmp     L000E
L00B8:	lda     _temp1
	cmp     #$18
	jcs     L00BC
;
; --enemy_y[index]; // jump
;
	lda     #<(_enemy_y)
	ldx     #>(_enemy_y)
	clc
	adc     _index
	bcc     L0017
	inx
L0017:	sta     ptr1
	stx     ptr1+1
	ldy     #$00
	lda     (ptr1),y
	sec
	sbc     #$01
	sta     (ptr1),y
;
; --enemy_y[index]; // jump even faster
;
	lda     #<(_enemy_y)
	ldx     #>(_enemy_y)
	clc
	adc     _index
	bcc     L0018
	inx
L0018:	sta     ptr1
	stx     ptr1+1
	lda     (ptr1),y
	sec
	sbc     #$01
	sta     (ptr1),y
;
; if (enemy_x[index] > ENTITY2.x) {
;
	ldy     _index
	ldx     #$00
	lda     _enemy_x,y
	cmp     _ENTITY2
	bcc     L00B9
	beq     L00B9
;
; enemy_anim[index] = Boss1SprL;
;
	lda     _index
	asl     a
	bcc     L00A6
	inx
	clc
L00A6:	adc     #<(_enemy_anim)
	sta     ptr1
	txa
	adc     #>(_enemy_anim)
	sta     ptr1+1
	lda     #<(_Boss1SprL)
	ldy     #$00
	sta     (ptr1),y
	iny
	lda     #>(_Boss1SprL)
;
; } else {
;
	jmp     L00C7
;
; enemy_anim[index] = Boss1SprR;
;
L00B9:	lda     _index
	asl     a
	bcc     L00A7
	inx
	clc
L00A7:	adc     #<(_enemy_anim)
	sta     ptr1
	txa
	adc     #>(_enemy_anim)
	sta     ptr1+1
	lda     #<(_Boss1SprR)
	ldy     #$00
	sta     (ptr1),y
	iny
	lda     #>(_Boss1SprR)
L00C7:	sta     (ptr1),y
;
; if (temp1 == 20 && enemy_bullet_cooldown[index] == 0) {
;
	lda     _temp1
	cmp     #$14
	jne     L000E
	ldy     _index
	lda     _enemy_bullet_cooldown,y
	jne     L000E
;
; fire_enemy_bullet(index, BULLET_THROW);
;
	lda     _index
	jsr     pusha
	lda     #$01
	jsr     _fire_enemy_bullet
;
; else if (temp1 < 26) { // use short anim. 2 frames
;
	jmp     L000E
L00BC:	lda     _temp1
	cmp     #$1A
	bcs     L0022
;
; --enemy_y[index]; // jump
;
	lda     #<(_enemy_y)
	ldx     #>(_enemy_y)
	clc
	adc     _index
	bcc     L0023
	inx
L0023:	sta     ptr1
	stx     ptr1+1
	ldy     #$00
	lda     (ptr1),y
	sec
	sbc     #$01
	sta     (ptr1),y
;
; if (enemy_x[index] > ENTITY2.x) {
;
	ldy     _index
	ldx     #$00
	lda     _enemy_x,y
	cmp     _ENTITY2
	bcc     L00BD
	beq     L00BD
;
; enemy_anim[index] = Boss1SprL;
;
	lda     _index
	asl     a
	bcc     L00A8
	inx
	clc
L00A8:	adc     #<(_enemy_anim)
	sta     ptr1
	txa
	adc     #>(_enemy_anim)
	sta     ptr1+1
	lda     #<(_Boss1SprL)
	ldy     #$00
	sta     (ptr1),y
	iny
	lda     #>(_Boss1SprL)
	sta     (ptr1),y
;
; } else {
;
	jmp     L000E
;
; enemy_anim[index] = Boss1SprR;
;
L00BD:	lda     _index
	asl     a
	bcc     L00A9
	inx
	clc
L00A9:	adc     #<(_enemy_anim)
	sta     ptr1
	txa
	adc     #>(_enemy_anim)
	sta     ptr1+1
	lda     #<(_Boss1SprR)
	ldy     #$00
	sta     (ptr1),y
	iny
	lda     #>(_Boss1SprR)
	sta     (ptr1),y
;
; else {
;
	jmp     L000E
;
; ++enemy_y[index]; // fall
;
L0022:	lda     #<(_enemy_y)
	ldx     #>(_enemy_y)
	clc
	adc     _index
	bcc     L0028
	inx
L0028:	sta     ptr1
	stx     ptr1+1
	ldy     #$00
	lda     #$01
	clc
	adc     (ptr1),y
	sta     (ptr1),y
;
; if (temp1 < 62) {
;
	lda     _temp1
	cmp     #$3E
	bcs     L0029
;
; ++enemy_y[index]; // fall faster
;
	lda     #<(_enemy_y)
	ldx     #>(_enemy_y)
	clc
	adc     _index
	bcc     L002A
	inx
L002A:	sta     ptr1
	stx     ptr1+1
	lda     #$01
	clc
	adc     (ptr1),y
	sta     (ptr1),y
;
; if (enemy_x[index] > ENTITY2.x) {
;
L0029:	ldy     _index
	ldx     #$00
	lda     _enemy_x,y
	cmp     _ENTITY2
	bcc     L00BE
	beq     L00BE
;
; enemy_anim[index] = Boss1SprL;
;
	lda     _index
	asl     a
	bcc     L00AA
	inx
	clc
L00AA:	adc     #<(_enemy_anim)
	sta     ptr1
	txa
	adc     #>(_enemy_anim)
	sta     ptr1+1
	lda     #<(_Boss1SprL)
	ldy     #$00
	sta     (ptr1),y
	iny
	lda     #>(_Boss1SprL)
;
; } else {
;
	jmp     L00C8
;
; enemy_anim[index] = Boss1SprR;
;
L00BE:	lda     _index
	asl     a
	bcc     L00AB
	inx
	clc
L00AB:	adc     #<(_enemy_anim)
	sta     ptr1
	txa
	adc     #>(_enemy_anim)
	sta     ptr1+1
	lda     #<(_Boss1SprR)
	ldy     #$00
	sta     (ptr1),y
	iny
	lda     #>(_Boss1SprR)
L00C8:	sta     (ptr1),y
;
; old_width = ENTITY1.width;
;
	lda     _ENTITY1+2
	sta     (sp),y
;
; old_height = ENTITY1.height;
;
	lda     _ENTITY1+3
	dey
	sta     (sp),y
;
; ENTITY1.x = enemy_x[index];
;
	ldy     _index
	lda     _enemy_x,y
	sta     _ENTITY1
;
; ENTITY1.y = enemy_y[index] + 28; // Bottom of the boss
;
	ldy     _index
	lda     _enemy_y,y
	clc
	adc     #$1C
	sta     _ENTITY1+1
;
; ENTITY1.width = 28;
;
	lda     #$1C
	sta     _ENTITY1+2
;
; ENTITY1.height = 4;
;
	lda     #$04
	sta     _ENTITY1+3
;
; if (bg_coll_D()) {
;
	jsr     _bg_coll_D
	tax
	beq     L0031
;
; enemy_y[index] -= eject_D;
;
	lda     #<(_enemy_y)
	ldx     #>(_enemy_y)
	clc
	adc     _index
	bcc     L0032
	inx
L0032:	sta     sreg
	stx     sreg+1
	sta     ptr1
	stx     ptr1+1
	ldy     #$00
	lda     (ptr1),y
	sec
	sbc     _eject_D
	sta     (sreg),y
;
; ENTITY1.width = old_width;
;
L0031:	ldy     #$01
	lda     (sp),y
	sta     _ENTITY1+2
;
; ENTITY1.height = old_height;
;
	dey
	lda     (sp),y
	sta     _ENTITY1+3
;
; if (enemy_bullet_cooldown[index] > 0) {
;
L000E:	ldy     _index
	lda     _enemy_bullet_cooldown,y
	beq     L0033
;
; --enemy_bullet_cooldown[index];
;
	lda     #<(_enemy_bullet_cooldown)
	ldx     #>(_enemy_bullet_cooldown)
	clc
	adc     _index
	bcc     L0035
	inx
L0035:	sta     ptr1
	stx     ptr1+1
	ldy     #$00
	lda     (ptr1),y
	sec
	sbc     #$01
	sta     (ptr1),y
;
; if (enemy_x[index] > ENTITY2.x) {
;
L0033:	ldy     _index
	lda     _enemy_x,y
	cmp     _ENTITY2
	bcc     L0036
	beq     L0036
;
; ENTITY1.x -= 1; // test going left
;
	dec     _ENTITY1
;
; bg_collision_fast();
;
	jsr     _bg_collision_fast
;
; if (collision_L) return;
;
	lda     _collision_L
	jne     L0084
;
; if (enemy_actual_x[index] == 0) --enemy_room[index];
;
	ldy     _index
	lda     _enemy_actual_x,y
	bne     L0039
	lda     #<(_enemy_room)
	ldx     #>(_enemy_room)
	clc
	adc     _index
	bcc     L003B
	inx
L003B:	sta     ptr1
	stx     ptr1+1
	ldy     #$00
	lda     (ptr1),y
	sec
	sbc     #$01
	sta     (ptr1),y
;
; --enemy_actual_x[index];
;
L0039:	lda     #<(_enemy_actual_x)
	ldx     #>(_enemy_actual_x)
	clc
	adc     _index
	bcc     L003C
	inx
L003C:	sta     ptr1
	stx     ptr1+1
	ldy     #$00
	lda     (ptr1),y
	sec
	sbc     #$01
;
; else if (enemy_x[index] < ENTITY2.x) {
;
	jmp     L00C9
L0036:	ldy     _index
	lda     _enemy_x,y
	cmp     _ENTITY2
	jcs     L0084
;
; ENTITY1.x += 1; // test going right
;
	inc     _ENTITY1
;
; bg_collision_fast();
;
	jsr     _bg_collision_fast
;
; if (collision_R) return;
;
	lda     _collision_R
	jne     L0084
;
; ++enemy_actual_x[index];
;
	lda     #<(_enemy_actual_x)
	ldx     #>(_enemy_actual_x)
	clc
	adc     _index
	bcc     L0041
	inx
L0041:	sta     ptr1
	stx     ptr1+1
	ldy     #$00
	lda     #$01
	clc
	adc     (ptr1),y
	sta     (ptr1),y
;
; if (enemy_actual_x[index] == 0) ++enemy_room[index];
;
	ldy     _index
	lda     _enemy_actual_x,y
	jne     L0084
	lda     #<(_enemy_room)
	ldx     #>(_enemy_room)
	clc
	adc     _index
	bcc     L0044
	inx
L0044:	sta     ptr1
	stx     ptr1+1
	ldy     #$00
	lda     #$01
	clc
	adc     (ptr1),y
;
; else if (enemy_type[index] == ENEMY_WASP) {
;
	jmp     L00C9
L0002:	ldy     _index
	lda     _enemy_type,y
	cmp     #$09
	jne     L0046
;
; ENTITY1.x = enemy_x[index];
;
	ldy     _index
	lda     _enemy_x,y
	sta     _ENTITY1
;
; ENTITY1.y = enemy_y[index] + 6; // mid point
;
	ldy     _index
	lda     _enemy_y,y
	clc
	adc     #$06
	sta     _ENTITY1+1
;
; ENTITY1.width = 13;
;
	lda     #$0D
	sta     _ENTITY1+2
;
; ENTITY1.height = 15;
;
	lda     #$0F
	sta     _ENTITY1+3
;
; if (enemy_frames & 1) return; // half speed
;
	lda     _enemy_frames
	and     #$01
	jne     L0084
;
; if (enemy_x[index] > ENTITY2.x) {
;
	ldy     _index
	lda     _enemy_x,y
	cmp     _ENTITY2
	bcc     L004C
	beq     L004C
;
; ENTITY1.x -= 1; // test going left
;
	dec     _ENTITY1
;
; bg_collision_fast();
;
	jsr     _bg_collision_fast
;
; if (collision_L) return;
;
	lda     _collision_L
	jne     L0084
;
; if (enemy_actual_x[index] == 0) --enemy_room[index];
;
	ldy     _index
	lda     _enemy_actual_x,y
	bne     L004F
	lda     #<(_enemy_room)
	ldx     #>(_enemy_room)
	clc
	adc     _index
	bcc     L0051
	inx
L0051:	sta     ptr1
	stx     ptr1+1
	ldy     #$00
	lda     (ptr1),y
	sec
	sbc     #$01
	sta     (ptr1),y
;
; --enemy_actual_x[index];
;
L004F:	lda     #<(_enemy_actual_x)
	ldx     #>(_enemy_actual_x)
	clc
	adc     _index
	bcc     L0052
	inx
L0052:	sta     ptr1
	stx     ptr1+1
	ldy     #$00
	lda     (ptr1),y
	sec
	sbc     #$01
	sta     (ptr1),y
;
; enemy_anim[index] = EnemyWaspSprL; // Use left-facing sprite
;
	ldx     #$00
	lda     _index
	asl     a
	bcc     L00AC
	inx
	clc
L00AC:	adc     #<(_enemy_anim)
	sta     ptr1
	txa
	adc     #>(_enemy_anim)
	sta     ptr1+1
	lda     #<(_EnemyWaspSprL)
	sta     (ptr1),y
	iny
	lda     #>(_EnemyWaspSprL)
;
; else if (enemy_x[index] < ENTITY2.x) {
;
	jmp     L00C9
L004C:	ldy     _index
	lda     _enemy_x,y
	cmp     _ENTITY2
	jcs     L0084
;
; ENTITY1.x += 1; // test going right
;
	inc     _ENTITY1
;
; bg_collision_fast();
;
	jsr     _bg_collision_fast
;
; if (collision_R) return;
;
	lda     _collision_R
	jne     L0084
;
; ++enemy_actual_x[index];
;
	lda     #<(_enemy_actual_x)
	ldx     #>(_enemy_actual_x)
	clc
	adc     _index
	bcc     L0057
	inx
L0057:	sta     ptr1
	stx     ptr1+1
	ldy     #$00
	lda     #$01
	clc
	adc     (ptr1),y
	sta     (ptr1),y
;
; if (enemy_actual_x[index] == 0) ++enemy_room[index];
;
	ldy     _index
	ldx     #$00
	lda     _enemy_actual_x,y
	bne     L00BF
	lda     #<(_enemy_room)
	ldx     #>(_enemy_room)
	clc
	adc     _index
	bcc     L005A
	inx
L005A:	sta     ptr1
	stx     ptr1+1
	ldy     #$00
	lda     #$01
	clc
	adc     (ptr1),y
	sta     (ptr1),y
;
; enemy_anim[index] = EnemyWaspSprR; // Use right-facing sprite
;
	ldx     #$00
L00BF:	lda     _index
	asl     a
	bcc     L00AD
	inx
	clc
L00AD:	adc     #<(_enemy_anim)
	sta     ptr1
	txa
	adc     #>(_enemy_anim)
	sta     ptr1+1
	lda     #<(_EnemyWaspSprR)
	ldy     #$00
	sta     (ptr1),y
	iny
	lda     #>(_EnemyWaspSprR)
;
; else if (enemy_type[index] == ENEMY_BOUNCE) {
;
	jmp     L00C9
L0046:	ldy     _index
	lda     _enemy_type,y
	cmp     #$0A
	jne     L005C
;
; temp1 = enemy_frames + (index << 3);
;
	lda     _index
	asl     a
	asl     a
	asl     a
	clc
	adc     _enemy_frames
	sta     _temp1
;
; temp1 &= 0x3f;
;
	and     #$3F
	sta     _temp1
;
; if (temp1 < 16) { // stand still
;
	cmp     #$10
	bcs     L00C0
;
; enemy_anim[index] = EnemyBounceSpr;
;
	ldx     #$00
	lda     _index
	asl     a
	bcc     L00AE
	inx
	clc
L00AE:	adc     #<(_enemy_anim)
	sta     ptr1
	txa
	adc     #>(_enemy_anim)
	sta     ptr1+1
	lda     #<(_EnemyBounceSpr)
	ldy     #$00
	sta     (ptr1),y
	iny
	lda     #>(_EnemyBounceSpr)
;
; else if (temp1 < 22) {
;
	jmp     L00C9
L00C0:	lda     _temp1
	cmp     #$16
	bcs     L00C1
;
; --enemy_y[index]; // jump
;
	lda     #<(_enemy_y)
	ldx     #>(_enemy_y)
	clc
	adc     _index
	bcc     L0061
	inx
L0061:	sta     ptr1
	stx     ptr1+1
	ldy     #$00
	lda     (ptr1),y
	sec
	sbc     #$01
	sta     (ptr1),y
;
; --enemy_y[index]; // jump faster
;
	lda     #<(_enemy_y)
	ldx     #>(_enemy_y)
	clc
	adc     _index
	bcc     L0062
	inx
L0062:	sta     ptr1
	stx     ptr1+1
	lda     (ptr1),y
	sec
	sbc     #$01
	sta     (ptr1),y
;
; enemy_anim[index] = EnemyBounceSpr2;
;
	ldx     #$00
	lda     _index
	asl     a
	bcc     L00AF
	inx
	clc
L00AF:	adc     #<(_enemy_anim)
	sta     ptr1
	txa
	adc     #>(_enemy_anim)
	sta     ptr1+1
	lda     #<(_EnemyBounceSpr2)
	sta     (ptr1),y
	iny
	lda     #>(_EnemyBounceSpr2)
;
; else if (temp1 < 42) {
;
	jmp     L00C9
L00C1:	lda     _temp1
	cmp     #$2A
	bcs     L00C2
;
; --enemy_y[index]; // jump
;
	lda     #<(_enemy_y)
	ldx     #>(_enemy_y)
	clc
	adc     _index
	bcc     L0065
	inx
L0065:	sta     ptr1
	stx     ptr1+1
	ldy     #$00
	lda     (ptr1),y
	sec
	sbc     #$01
	sta     (ptr1),y
;
; enemy_anim[index] = EnemyBounceSpr2;
;
	ldx     #$00
	lda     _index
	asl     a
	bcc     L00B0
	inx
	clc
L00B0:	adc     #<(_enemy_anim)
	sta     ptr1
	txa
	adc     #>(_enemy_anim)
	sta     ptr1+1
	lda     #<(_EnemyBounceSpr2)
	sta     (ptr1),y
	iny
	lda     #>(_EnemyBounceSpr2)
;
; else if (temp1 < 44) { // use short anim. 2 frames
;
	jmp     L00C9
L00C2:	lda     _temp1
	cmp     #$2C
	bcs     L0067
;
; --enemy_y[index]; // jump
;
	lda     #<(_enemy_y)
	ldx     #>(_enemy_y)
	clc
	adc     _index
	bcc     L0068
	inx
L0068:	sta     ptr1
	stx     ptr1+1
	ldy     #$00
	lda     (ptr1),y
	sec
	sbc     #$01
	sta     (ptr1),y
;
; enemy_anim[index] = EnemyBounceSpr;
;
	ldx     #$00
	lda     _index
	asl     a
	bcc     L00B1
	inx
	clc
L00B1:	adc     #<(_enemy_anim)
	sta     ptr1
	txa
	adc     #>(_enemy_anim)
	sta     ptr1+1
	lda     #<(_EnemyBounceSpr)
	sta     (ptr1),y
	iny
	lda     #>(_EnemyBounceSpr)
;
; else {
;
	jmp     L00C9
;
; ++enemy_y[index]; // fall
;
L0067:	lda     #<(_enemy_y)
	ldx     #>(_enemy_y)
	clc
	adc     _index
	bcc     L006A
	inx
L006A:	sta     ptr1
	stx     ptr1+1
	ldy     #$00
	lda     #$01
	clc
	adc     (ptr1),y
	sta     (ptr1),y
;
; if (temp1 < 62) {
;
	ldx     #$00
	lda     _temp1
	cmp     #$3E
	bcs     L00C3
;
; ++enemy_y[index]; // fall faster
;
	lda     #<(_enemy_y)
	ldx     #>(_enemy_y)
	clc
	adc     _index
	bcc     L006C
	inx
L006C:	sta     ptr1
	stx     ptr1+1
	lda     #$01
	clc
	adc     (ptr1),y
	sta     (ptr1),y
;
; enemy_anim[index] = EnemyBounceSpr2;
;
	ldx     #$00
L00C3:	lda     _index
	asl     a
	bcc     L00B2
	inx
	clc
L00B2:	adc     #<(_enemy_anim)
	sta     ptr1
	txa
	adc     #>(_enemy_anim)
	sta     ptr1+1
	lda     #<(_EnemyBounceSpr2)
	sta     (ptr1),y
	iny
	lda     #>(_EnemyBounceSpr2)
	sta     (ptr1),y
;
; temp1 = enemy_y[index];
;
	ldy     _index
	lda     _enemy_y,y
	sta     _temp1
;
; ENTITY1.x = enemy_x[index];
;
	ldy     _index
	lda     _enemy_x,y
	sta     _ENTITY1
;
; ENTITY1.y = enemy_y[index];
;
	ldy     _index
	lda     _enemy_y,y
	sta     _ENTITY1+1
;
; ENTITY1.width = 15;
;
	lda     #$0F
	sta     _ENTITY1+2
;
; ENTITY1.height = 14;
;
	lda     #$0E
	sta     _ENTITY1+3
;
; if (bg_coll_D()) {
;
	jsr     _bg_coll_D
	tax
	jeq     L0084
;
; enemy_y[index] -= eject_D;
;
	lda     #<(_enemy_y)
	ldx     #>(_enemy_y)
	clc
	adc     _index
	bcc     L0071
	inx
L0071:	sta     sreg
	stx     sreg+1
	sta     ptr1
	stx     ptr1+1
	ldy     #$00
	lda     (ptr1),y
	sec
	sbc     _eject_D
	sta     (sreg),y
;
; else if (enemy_type[index] == ENEMY_WORM) {
;
	jmp     incsp2
L005C:	ldy     _index
	lda     _enemy_type,y
	cmp     #$0B
	jne     L0084
;
; ENTITY1.x = enemy_x[index];
;
	ldy     _index
	lda     _enemy_x,y
	sta     _ENTITY1
;
; ENTITY1.y = enemy_y[index];
;
	ldy     _index
	lda     _enemy_y,y
	sta     _ENTITY1+1
;
; ENTITY1.width = 13;
;
	lda     #$0D
	sta     _ENTITY1+2
;
; ENTITY1.height = 13;
;
	sta     _ENTITY1+3
;
; if (enemy_frames & 1) return; // half speed
;
	lda     _enemy_frames
	and     #$01
	jne     L0084
;
; if (enemy_actual_x[index] & 0x80) { // Moving left
;
	ldy     _index
	lda     _enemy_actual_x,y
	and     #$80
	beq     L00C4
;
; ENTITY1.x -= 1;
;
	dec     _ENTITY1
;
; bg_collision_fast();
;
	jsr     _bg_collision_fast
;
; if (collision_L) {
;
	lda     _collision_L
	beq     L007A
;
; enemy_actual_x[index] &= 0x7F; // Change direction
;
	lda     #<(_enemy_actual_x)
	ldx     #>(_enemy_actual_x)
	clc
	adc     _index
	bcc     L007B
	inx
L007B:	sta     ptr1
	stx     ptr1+1
	ldy     #$00
	lda     (ptr1),y
	and     #$7F
;
; } else {
;
	jmp     L00C9
;
; if (enemy_actual_x[index] == 0) --enemy_room[index];
;
L007A:	ldy     _index
	lda     _enemy_actual_x,y
	bne     L007D
	lda     #<(_enemy_room)
	ldx     #>(_enemy_room)
	clc
	adc     _index
	bcc     L007F
	inx
L007F:	sta     ptr1
	stx     ptr1+1
	ldy     #$00
	lda     (ptr1),y
	sec
	sbc     #$01
	sta     (ptr1),y
;
; --enemy_actual_x[index];
;
L007D:	lda     #<(_enemy_actual_x)
	ldx     #>(_enemy_actual_x)
	clc
	adc     _index
	bcc     L0080
	inx
L0080:	sta     ptr1
	stx     ptr1+1
	ldy     #$00
	lda     (ptr1),y
	sec
	sbc     #$01
	sta     (ptr1),y
;
; enemy_anim[index] = EnemyWormSprL1;
;
	ldx     #$00
	lda     _index
	asl     a
	bcc     L00B3
	inx
	clc
L00B3:	adc     #<(_enemy_anim)
	sta     ptr1
	txa
	adc     #>(_enemy_anim)
	sta     ptr1+1
	lda     #<(_EnemyWormSprL1)
	sta     (ptr1),y
	iny
	lda     #>(_EnemyWormSprL1)
;
; } else { // Moving right
;
	jmp     L00C9
;
; ENTITY1.x += 1;
;
L00C4:	inc     _ENTITY1
;
; bg_collision_fast();
;
	jsr     _bg_collision_fast
;
; if (collision_R) {
;
	lda     _collision_R
	beq     L0082
;
; enemy_actual_x[index] |= 0x80; // Change direction
;
	lda     #<(_enemy_actual_x)
	ldx     #>(_enemy_actual_x)
	clc
	adc     _index
	bcc     L0083
	inx
L0083:	sta     ptr1
	stx     ptr1+1
	ldy     #$00
	lda     (ptr1),y
	ora     #$80
;
; } else {
;
	jmp     L00C9
;
; ++enemy_actual_x[index];
;
L0082:	lda     #<(_enemy_actual_x)
	ldx     #>(_enemy_actual_x)
	clc
	adc     _index
	bcc     L0085
	inx
L0085:	sta     ptr1
	stx     ptr1+1
	ldy     #$00
	lda     #$01
	clc
	adc     (ptr1),y
	sta     (ptr1),y
;
; if (enemy_actual_x[index] == 0) ++enemy_room[index];
;
	ldy     _index
	ldx     #$00
	lda     _enemy_actual_x,y
	bne     L00C5
	lda     #<(_enemy_room)
	ldx     #>(_enemy_room)
	clc
	adc     _index
	bcc     L0088
	inx
L0088:	sta     ptr1
	stx     ptr1+1
	ldy     #$00
	lda     #$01
	clc
	adc     (ptr1),y
	sta     (ptr1),y
;
; enemy_anim[index] = EnemyWormSprR1;
;
	ldx     #$00
L00C5:	lda     _index
	asl     a
	bcc     L00B4
	inx
	clc
L00B4:	adc     #<(_enemy_anim)
	sta     ptr1
	txa
	adc     #>(_enemy_anim)
	sta     ptr1+1
	lda     #<(_EnemyWormSprR1)
	ldy     #$00
	sta     (ptr1),y
	iny
	lda     #>(_EnemyWormSprR1)
L00C9:	sta     (ptr1),y
;
; }
;
L0084:	jmp     incsp2

.endproc

; ---------------------------------------------------------------
; void __near__ sprite_collisions (void)
; ---------------------------------------------------------------

.segment	"CODE"

.proc	_sprite_collisions: near

.segment	"CODE"

;
; if (damage_cooldown > 0) {
;
	lda     _damage_cooldown
	beq     L0023
;
; --damage_cooldown;
;
	dec     _damage_cooldown
;
; ENTITY1.x = high_byte(NINJA.x);
;
L0023:	lda     _NINJA+1
	sta     _ENTITY1
;
; ENTITY1.y = high_byte(NINJA.y);
;
	lda     _NINJA+3
	sta     _ENTITY1+1
;
; ENTITY1.width = HERO_WIDTH;
;
	lda     #$0D
	sta     _ENTITY1+2
;
; ENTITY1.height = HERO_HEIGHT;
;
	lda     #$0B
	sta     _ENTITY1+3
;
; for (index = 0; index < MAX_COINS; ++index) {
;
	lda     #$00
	sta     _index
L0024:	lda     _index
	cmp     #$10
	bcs     L0027
;
; if (coin_active[index]) {
;
	ldy     _index
	lda     _coin_active,y
	beq     L0026
;
; if (coin_type[index] == COIN_REG) {
;
	ldy     _index
	lda     _coin_type,y
	cmp     #$02
	bne     L0025
;
; ENTITY2.width = COIN_WIDTH;
;
	lda     #$07
	sta     _ENTITY2+2
;
; ENTITY2.height = COIN_HEIGHT;
;
	lda     #$0B
;
; } else {
;
	jmp     L0021
;
; ENTITY2.width = BIG_COIN;
;
L0025:	lda     #$0D
	sta     _ENTITY2+2
;
; ENTITY2.height = BIG_COIN;
;
L0021:	sta     _ENTITY2+3
;
; ENTITY2.x = coin_x[index];
;
	ldy     _index
	lda     _coin_x,y
	sta     _ENTITY2
;
; ENTITY2.y = coin_y[index];
;
	ldy     _index
	lda     _coin_y,y
	sta     _ENTITY2+1
;
; if (check_collision(&ENTITY1, &ENTITY2)) {
;
	lda     #<(_ENTITY1)
	ldx     #>(_ENTITY1)
	jsr     pushax
	lda     #<(_ENTITY2)
	ldx     #>(_ENTITY2)
	jsr     _check_collision
	tax
	beq     L0026
;
; coin_y[index] = TURN_OFF;
;
	ldy     _index
	lda     #$FF
	sta     _coin_y,y
;
; coin_active[index] = 0;
;
	ldy     _index
	lda     #$00
	sta     _coin_active,y
;
; ++coins;
;
	inc     _coins
;
; sfx_play(SFX_DING, 0);
;
	lda     #$01
	jsr     pusha
	lda     #$00
	jsr     _sfx_play
;
; if (coin_type[index] == COIN_END) ++level_up;
;
	ldy     _index
	lda     _coin_type,y
	cmp     #$08
	bne     L0026
	inc     _level_up
;
; for (index = 0; index < MAX_COINS; ++index) {
;
L0026:	inc     _index
	jmp     L0024
;
; ENTITY2.x = high_byte(NINJA.x);
;
L0027:	lda     _NINJA+1
	sta     _ENTITY2
;
; ENTITY2.y = high_byte(NINJA.y);
;
	lda     _NINJA+3
	sta     _ENTITY2+1
;
; ENTITY2.width = HERO_WIDTH;
;
	lda     #$0D
	sta     _ENTITY2+2
;
; ENTITY2.height = HERO_HEIGHT;
;
	lda     #$0B
	sta     _ENTITY2+3
;
; for (index = 0; index < MAX_ENEMY; ++index) {
;
	lda     #$00
	sta     _index
L0028:	lda     _index
	cmp     #$10
	bcs     L0014
;
; if (enemy_active[index]) {
;
	ldy     _index
	lda     _enemy_active,y
	beq     L002A
;
; ENTITY1.x = enemy_x[index];
;
	ldy     _index
	lda     _enemy_x,y
	sta     _ENTITY1
;
; ENTITY1.y = enemy_y[index];
;
	ldy     _index
	lda     _enemy_y,y
	sta     _ENTITY1+1
;
; if (enemy_type[index] == ENEMY_BOSS1) {
;
	ldy     _index
	lda     _enemy_type,y
	cmp     #$10
	bne     L0029
;
; ENTITY1.width = 28;  // 32 pixels - 4 pixels for safety
;
	lda     #$1C
;
; } else {
;
	jmp     L002B
;
; ENTITY1.width = ENEMY_WIDTH;
;
L0029:	lda     #$0D
L002B:	sta     _ENTITY1+2
;
; ENTITY1.height = ENEMY_HEIGHT;
;
	sta     _ENTITY1+3
;
; if (check_collision(&ENTITY1, &ENTITY2)) {
;
	lda     #<(_ENTITY1)
	ldx     #>(_ENTITY1)
	jsr     pushax
	lda     #<(_ENTITY2)
	ldx     #>(_ENTITY2)
	jsr     _check_collision
	tax
	beq     L002A
;
; if (damage_cooldown == 0) {
;
	lda     _damage_cooldown
	bne     L002A
;
; player_health -= 2;
;
	lda     _player_health
	sec
	sbc     #$02
	sta     _player_health
;
; damage_cooldown = DAMAGE_COOLDOWN_TIME;
;
	lda     #$3C
	sta     _damage_cooldown
;
; sfx_play(SFX_NOISE, 0);
;
	lda     #$02
	jsr     pusha
	lda     #$00
	jsr     _sfx_play
;
; if (player_health <= 0) {
;
	lda     _player_health
	bne     L002A
;
; death = 1;
;
	lda     #$01
	sta     _death
;
; break; // Exit the loop if dead
;
	rts
;
; for (index = 0; index < MAX_ENEMY; ++index) {
;
L002A:	inc     _index
	jmp     L0028
;
; }
;
L0014:	rts

.endproc

; ---------------------------------------------------------------
; void __near__ check_spr_objects (void)
; ---------------------------------------------------------------

.segment	"CODE"

.proc	_check_spr_objects: near

.segment	"CODE"

;
; ++enemy_frames;
;
	inc     _enemy_frames
;
; ENTITY2.x = high_byte(NINJA.x);
;
	lda     _NINJA+1
	sta     _ENTITY2
;
; for (index = 0; index < MAX_COINS; ++index) {
;
	lda     #$00
	sta     _index
L0019:	lda     _index
	cmp     #$10
	bcs     L001B
;
; coin_active[index] = 0; //default to zero
;
	ldy     _index
	lda     #$00
	sta     _coin_active,y
;
; if (coin_y[index] != TURN_OFF) {
;
	ldy     _index
	lda     _coin_y,y
	cmp     #$FF
	beq     L001A
;
; high_byte(temp5) = coin_room[index];
;
	ldy     _index
	lda     _coin_room,y
	sta     _temp5+1
;
; low_byte(temp5) = coin_actual_x[index];
;
	ldy     _index
	lda     _coin_actual_x,y
	sta     _temp5
;
; coin_active[index] = get_position();
;
	lda     #<(_coin_active)
	ldx     #>(_coin_active)
	clc
	adc     _index
	bcc     L000B
	inx
L000B:	jsr     pushax
	jsr     _get_position
	ldy     #$00
	jsr     staspidx
;
; coin_x[index] = temp_x; // screen x coords
;
	ldy     _index
	lda     _temp_x
	sta     _coin_x,y
;
; for (index = 0; index < MAX_COINS; ++index) {
;
L001A:	inc     _index
	jmp     L0019
;
; for (index = 0; index < MAX_ENEMY; ++index) {
;
L001B:	lda     #$00
	sta     _index
L001C:	lda     _index
	cmp     #$10
	bcs     L000E
;
; enemy_active[index] = 0; //default to zero
;
	ldy     _index
	lda     #$00
	sta     _enemy_active,y
;
; if (enemy_y[index] != TURN_OFF) {
;
	ldy     _index
	lda     _enemy_y,y
	cmp     #$FF
	beq     L001D
;
; high_byte(temp5) = enemy_room[index];
;
	ldy     _index
	lda     _enemy_room,y
	sta     _temp5+1
;
; low_byte(temp5) = enemy_actual_x[index];
;
	ldy     _index
	lda     _enemy_actual_x,y
	sta     _temp5
;
; temp1 = enemy_active[index] = get_position();
;
	lda     #<(_enemy_active)
	ldx     #>(_enemy_active)
	clc
	adc     _index
	bcc     L0016
	inx
L0016:	jsr     pushax
	jsr     _get_position
	ldy     #$00
	jsr     staspidx
	sta     _temp1
;
; if (temp1 == 0) continue;
;
	lda     _temp1
	beq     L001D
;
; enemy_x[index] = temp_x; // screen x coords
;
	ldy     _index
	lda     _temp_x
	sta     _enemy_x,y
;
; enemy_moves(); // if active, do it's moves now
;
	jsr     _enemy_moves
;
; for (index = 0; index < MAX_ENEMY; ++index) {
;
L001D:	inc     _index
	jmp     L001C
;
; }
;
L000E:	rts

.endproc

; ---------------------------------------------------------------
; void __near__ sprite_obj_init (void)
; ---------------------------------------------------------------

.segment	"CODE"

.proc	_sprite_obj_init: near

.segment	"CODE"

;
; pointer = Coins_list[level];
;
	ldx     #$00
	lda     _level
	asl     a
	bcc     L002E
	inx
	clc
L002E:	adc     #<(_Coins_list)
	sta     ptr1
	txa
	adc     #>(_Coins_list)
	sta     ptr1+1
	ldy     #$01
	lda     (ptr1),y
	sta     _pointer+1
	dey
	lda     (ptr1),y
	sta     _pointer
;
; for(index = 0,index2 = 0;index < MAX_COINS; ++index) {
;
	tya
	sta     _index
	sta     _index2
L0030:	lda     _index
	cmp     #$10
	jcs     L0031
;
; coin_x[index] = 0;
;
	ldy     _index
	lda     #$00
	sta     _coin_x,y
;
; temp1 = pointer[index2]; // get a byte of data
;
	lda     _pointer
	ldx     _pointer+1
	ldy     _index2
	sta     ptr1
	stx     ptr1+1
	lda     (ptr1),y
	sta     _temp1
;
; coin_y[index] = temp1;
;
	ldy     _index
	lda     _temp1
	sta     _coin_y,y
;
; if (temp1 == TURN_OFF) break;
;
	cmp     #$FF
	beq     L0031
;
; ++index2;
;
	inc     _index2
;
; coin_active[index] = 0;
;
	ldy     _index
	lda     #$00
	sta     _coin_active,y
;
; temp1 = pointer[index2]; // get a byte of data
;
	lda     _pointer
	ldx     _pointer+1
	ldy     _index2
	sta     ptr1
	stx     ptr1+1
	lda     (ptr1),y
	sta     _temp1
;
; coin_room[index] = temp1;
;
	ldy     _index
	lda     _temp1
	sta     _coin_room,y
;
; ++index2;
;
	inc     _index2
;
; temp1 = pointer[index2]; // get a byte of data
;
	lda     _pointer
	ldx     _pointer+1
	ldy     _index2
	sta     ptr1
	stx     ptr1+1
	lda     (ptr1),y
	sta     _temp1
;
; coin_actual_x[index] = temp1;
;
	ldy     _index
	lda     _temp1
	sta     _coin_actual_x,y
;
; ++index2;
;
	inc     _index2
;
; temp1 = pointer[index2]; // get a byte of data
;
	lda     _pointer
	ldx     _pointer+1
	ldy     _index2
	sta     ptr1
	stx     ptr1+1
	lda     (ptr1),y
	sta     _temp1
;
; coin_type[index] = temp1;
;
	ldy     _index
	lda     _temp1
	sta     _coin_type,y
;
; ++index2;
;
	inc     _index2
;
; for(index = 0,index2 = 0;index < MAX_COINS; ++index) {
;
	inc     _index
	jmp     L0030
;
; for(++index;index < MAX_COINS; ++index) {
;
L0031:	inc     _index
	ldx     #$00
	lda     _index
	cmp     #$10
	bcs     L0032
;
; coin_y[index] = TURN_OFF;
;
	ldy     _index
	lda     #$FF
	sta     _coin_y,y
;
; for(++index;index < MAX_COINS; ++index) {
;
	jmp     L0031
;
; pointer = Enemy_list[level];
;
L0032:	lda     _level
	asl     a
	bcc     L002F
	inx
	clc
L002F:	adc     #<(_Enemy_list)
	sta     ptr1
	txa
	adc     #>(_Enemy_list)
	sta     ptr1+1
	ldy     #$01
	lda     (ptr1),y
	sta     _pointer+1
	dey
	lda     (ptr1),y
	sta     _pointer
;
; for(index = 0,index2 = 0;index < MAX_ENEMY; ++index) {
;
	tya
	sta     _index
	sta     _index2
L0033:	lda     _index
	cmp     #$10
	jcs     L0034
;
; enemy_x[index] = 0;
;
	ldy     _index
	lda     #$00
	sta     _enemy_x,y
;
; temp1 = pointer[index2]; // get a byte of data
;
	lda     _pointer
	ldx     _pointer+1
	ldy     _index2
	sta     ptr1
	stx     ptr1+1
	lda     (ptr1),y
	sta     _temp1
;
; enemy_y[index] = temp1;
;
	ldy     _index
	lda     _temp1
	sta     _enemy_y,y
;
; if (temp1 == TURN_OFF) break;
;
	cmp     #$FF
	beq     L0034
;
; ++index2;
;
	inc     _index2
;
; enemy_active[index] = 0;
;
	ldy     _index
	lda     #$00
	sta     _enemy_active,y
;
; temp1 = pointer[index2]; // get a byte of data
;
	lda     _pointer
	ldx     _pointer+1
	ldy     _index2
	sta     ptr1
	stx     ptr1+1
	lda     (ptr1),y
	sta     _temp1
;
; enemy_room[index] = temp1;
;
	ldy     _index
	lda     _temp1
	sta     _enemy_room,y
;
; ++index2;
;
	inc     _index2
;
; temp1 = pointer[index2]; // get a byte of data
;
	lda     _pointer
	ldx     _pointer+1
	ldy     _index2
	sta     ptr1
	stx     ptr1+1
	lda     (ptr1),y
	sta     _temp1
;
; enemy_actual_x[index] = temp1;
;
	ldy     _index
	lda     _temp1
	sta     _enemy_actual_x,y
;
; ++index2;
;
	inc     _index2
;
; temp1 = pointer[index2]; // get a byte of data
;
	lda     _pointer
	ldx     _pointer+1
	ldy     _index2
	sta     ptr1
	stx     ptr1+1
	lda     (ptr1),y
	sta     _temp1
;
; enemy_type[index] = temp1;
;
	ldy     _index
	lda     _temp1
	sta     _enemy_type,y
;
; ++index2;
;
	inc     _index2
;
; for(index = 0,index2 = 0;index < MAX_ENEMY; ++index) {
;
	inc     _index
	jmp     L0033
;
; for(++index;index < MAX_ENEMY; ++index) {
;
L0034:	inc     _index
	lda     _index
	cmp     #$10
	bcs     L001E
;
; enemy_y[index] = TURN_OFF;
;
	ldy     _index
	lda     #$FF
	sta     _enemy_y,y
;
; for(++index;index < MAX_ENEMY; ++index) {
;
	jmp     L0034
;
; }
;
L001E:	rts

.endproc

; ---------------------------------------------------------------
; void __near__ bg_collision_fast (void)
; ---------------------------------------------------------------

.segment	"CODE"

.proc	_bg_collision_fast: near

.segment	"CODE"

;
; collision_L = 0;
;
	lda     #$00
	sta     _collision_L
;
; collision_R = 0;
;
	sta     _collision_R
;
; if (ENTITY1.y >= 0xf0) return;
;
	lda     _ENTITY1+1
	cmp     #$F0
	bcs     L0005
;
; temp5 = ENTITY1.x + scroll_x;
;
	lda     _ENTITY1
	clc
	adc     _scroll_x
	pha
	lda     #$00
	adc     _scroll_x+1
	sta     _temp5+1
	pla
	sta     _temp5
;
; temp_x = temp5 & 0xff; // low byte x
;
	sta     _temp_x
;
; temp_room = temp5 >> 8; // high byte x
;
	lda     _temp5+1
	sta     _temp_room
;
; temp_y = ENTITY1.y + 6; // y middle
;
	lda     _ENTITY1+1
	clc
	adc     #$06
	sta     _temp_y
;
; bg_collision_sub();
;
	jsr     _bg_collision_sub
;
; if (bg_collision_sub() & COLLISION_SOLID) {
;
	jsr     _bg_collision_sub
	and     #$40
	beq     L0006
;
; ++collision_L;
;
	inc     _collision_L
;
; temp5 += ENTITY1.width;
;
L0006:	lda     _ENTITY1+2
	clc
	adc     _temp5
	sta     _temp5
	lda     #$00
	adc     _temp5+1
	sta     _temp5+1
;
; temp_x = temp5 & 0xff; // low byte x
;
	lda     _temp5
	sta     _temp_x
;
; temp_room = temp5 >> 8; // high byte x
;
	lda     _temp5+1
	sta     _temp_room
;
; bg_collision_sub();
;
	jsr     _bg_collision_sub
;
; if (bg_collision_sub() & COLLISION_SOLID) { // find a corner in the collision map
;
	jsr     _bg_collision_sub
	and     #$40
	beq     L0005
;
; ++collision_R;
;
	inc     _collision_R
;
; }
;
L0005:	rts

.endproc

; ---------------------------------------------------------------
; char __near__ bg_coll_L (void)
; ---------------------------------------------------------------

.segment	"CODE"

.proc	_bg_coll_L: near

.segment	"CODE"

;
; temp5 = ENTITY1.x + scroll_x;
;
	lda     _ENTITY1
	clc
	adc     _scroll_x
	sta     _temp5
	lda     #$00
	adc     _scroll_x+1
	sta     _temp5+1
;
; temp_x = (char)temp5; // low byte
;
	lda     _temp5
	sta     _temp_x
;
; temp_room = temp5 >> 8; // high byte
;
	lda     _temp5+1
	sta     _temp_room
;
; eject_L = temp_x | 0xf0;
;
	lda     _temp_x
	ora     #$F0
	sta     _eject_L
;
; temp_y = ENTITY1.y + 2;
;
	lda     _ENTITY1+1
	clc
	adc     #$02
	sta     _temp_y
;
; if (bg_collision_sub() & COLLISION_SOLID) return 1;
;
	jsr     _bg_collision_sub
	and     #$40
	beq     L0006
	ldx     #$00
	lda     #$01
	rts
;
; temp_y = ENTITY1.y + ENTITY1.height;
;
L0006:	lda     _ENTITY1+1
	clc
	adc     _ENTITY1+3
	sta     _temp_y
;
; temp_y -= 2;
;
	sec
	sbc     #$02
	sta     _temp_y
;
; if (bg_collision_sub() & COLLISION_SOLID) return 1;
;
	jsr     _bg_collision_sub
	ldx     #$00
	and     #$40
	beq     L0008
	lda     #$01
	rts
;
; }
;
L0008:	rts

.endproc

; ---------------------------------------------------------------
; char __near__ bg_coll_R (void)
; ---------------------------------------------------------------

.segment	"CODE"

.proc	_bg_coll_R: near

.segment	"CODE"

;
; temp5 = ENTITY1.x + scroll_x + ENTITY1.width;
;
	lda     _ENTITY1
	clc
	adc     _scroll_x
	pha
	lda     #$00
	adc     _scroll_x+1
	tax
	pla
	clc
	adc     _ENTITY1+2
	bcc     L0006
	inx
L0006:	sta     _temp5
	stx     _temp5+1
;
; temp_x = (char)temp5; // low byte
;
	lda     _temp5
	sta     _temp_x
;
; temp_room = temp5 >> 8; // high byte
;
	lda     _temp5+1
	sta     _temp_room
;
; eject_R = (temp_x + 1) & 0x0f;
;
	lda     _temp_x
	clc
	adc     #$01
	and     #$0F
	sta     _eject_R
;
; temp_y = ENTITY1.y + 2;
;
	lda     _ENTITY1+1
	clc
	adc     #$02
	sta     _temp_y
;
; if (bg_collision_sub() & COLLISION_SOLID) return 1;
;
	jsr     _bg_collision_sub
	and     #$40
	beq     L0008
	ldx     #$00
	lda     #$01
	rts
;
; temp_y = ENTITY1.y + ENTITY1.height;
;
L0008:	lda     _ENTITY1+1
	clc
	adc     _ENTITY1+3
	sta     _temp_y
;
; temp_y -= 2;
;
	sec
	sbc     #$02
	sta     _temp_y
;
; if (bg_collision_sub() & COLLISION_SOLID) return 1;
;
	jsr     _bg_collision_sub
	ldx     #$00
	and     #$40
	beq     L000A
	lda     #$01
	rts
;
; }
;
L000A:	rts

.endproc

; ---------------------------------------------------------------
; char __near__ bg_coll_U (void)
; ---------------------------------------------------------------

.segment	"CODE"

.proc	_bg_coll_U: near

.segment	"CODE"

;
; temp5 = ENTITY1.x + scroll_x;
;
	lda     _ENTITY1
	clc
	adc     _scroll_x
	sta     _temp5
	lda     #$00
	adc     _scroll_x+1
	sta     _temp5+1
;
; temp5 += 2;
;
	lda     #$02
	clc
	adc     _temp5
	sta     _temp5
	bcc     L0002
	inc     _temp5+1
;
; temp_x = (char)temp5; // low byte
;
L0002:	lda     _temp5
	sta     _temp_x
;
; temp_room = temp5 >> 8; // high byte
;
	lda     _temp5+1
	sta     _temp_room
;
; temp_y = ENTITY1.y;
;
	lda     _ENTITY1+1
	sta     _temp_y
;
; eject_U = temp_y | 0xf0;
;
	ora     #$F0
	sta     _eject_U
;
; if (bg_collision_sub() & COLLISION_SOLID) return 1;
;
	jsr     _bg_collision_sub
	and     #$40
	beq     L0007
	ldx     #$00
	lda     #$01
	rts
;
; temp5 = ENTITY1.x + scroll_x + ENTITY1.width;
;
L0007:	lda     _ENTITY1
	clc
	adc     _scroll_x
	pha
	lda     #$00
	adc     _scroll_x+1
	tax
	pla
	clc
	adc     _ENTITY1+2
	bcc     L0006
	inx
L0006:	sta     _temp5
	stx     _temp5+1
;
; temp5 -= 2;
;
	lda     _temp5
	sec
	sbc     #$02
	sta     _temp5
	bcs     L0004
	dec     _temp5+1
;
; temp_x = (char)temp5; // low byte
;
L0004:	lda     _temp5
	sta     _temp_x
;
; temp_room = temp5 >> 8; // high byte
;
	lda     _temp5+1
	sta     _temp_room
;
; if (bg_collision_sub() & COLLISION_SOLID) return 1;
;
	jsr     _bg_collision_sub
	ldx     #$00
	and     #$40
	beq     L0009
	lda     #$01
	rts
;
; }
;
L0009:	rts

.endproc

; ---------------------------------------------------------------
; char __near__ bg_coll_D (void)
; ---------------------------------------------------------------

.segment	"CODE"

.proc	_bg_coll_D: near

.segment	"CODE"

;
; temp5 = ENTITY1.x + scroll_x;
;
	lda     _ENTITY1
	clc
	adc     _scroll_x
	sta     _temp5
	lda     #$00
	adc     _scroll_x+1
	sta     _temp5+1
;
; temp5 += 2;
;
	lda     #$02
	clc
	adc     _temp5
	sta     _temp5
	bcc     L0002
	inc     _temp5+1
;
; temp_x = (char)temp5; // low byte
;
L0002:	lda     _temp5
	sta     _temp_x
;
; temp_room = temp5 >> 8; // high byte
;
	lda     _temp5+1
	sta     _temp_room
;
; temp_y = ENTITY1.y + ENTITY1.height;
;
	lda     _ENTITY1+1
	clc
	adc     _ENTITY1+3
	sta     _temp_y
;
; if ((temp_y & 0x0f) > 3) return 0; // bug fix
;
	and     #$0F
	cmp     #$04
	lda     #$00
	sbc     #$00
	bvs     L0004
	eor     #$80
L0004:	asl     a
	lda     #$00
	bcc     L000C
	tax
	rts
;
; eject_D = (temp_y + 1) & 0x0f;
;
L000C:	lda     _temp_y
	clc
	adc     #$01
	and     #$0F
	sta     _eject_D
;
; if (bg_collision_sub() & (COLLISION_SOLID | COLLISION_PLATFORM)) return 1;
;
	jsr     _bg_collision_sub
	and     #$60
	beq     L000D
	ldx     #$00
	lda     #$01
	rts
;
; temp5 = ENTITY1.x + scroll_x + ENTITY1.width;
;
L000D:	lda     _ENTITY1
	clc
	adc     _scroll_x
	pha
	lda     #$00
	adc     _scroll_x+1
	tax
	pla
	clc
	adc     _ENTITY1+2
	bcc     L000A
	inx
L000A:	sta     _temp5
	stx     _temp5+1
;
; temp5 -= 2;
;
	lda     _temp5
	sec
	sbc     #$02
	sta     _temp5
	bcs     L0007
	dec     _temp5+1
;
; temp_x = (char)temp5; // low byte
;
L0007:	lda     _temp5
	sta     _temp_x
;
; temp_room = temp5 >> 8; // high byte
;
	lda     _temp5+1
	sta     _temp_room
;
; if (bg_collision_sub() & (COLLISION_SOLID | COLLISION_PLATFORM)) return 1;
;
	jsr     _bg_collision_sub
	ldx     #$00
	and     #$60
	beq     L000E
	lda     #$01
	rts
;
; }
;
L000E:	rts

.endproc

; ---------------------------------------------------------------
; char __near__ bg_coll_D2 (void)
; ---------------------------------------------------------------

.segment	"CODE"

.proc	_bg_coll_D2: near

.segment	"CODE"

;
; temp5 = ENTITY1.x + scroll_x;
;
	lda     _ENTITY1
	clc
	adc     _scroll_x
	sta     _temp5
	lda     #$00
	adc     _scroll_x+1
	sta     _temp5+1
;
; temp5 += 2;
;
	lda     #$02
	clc
	adc     _temp5
	sta     _temp5
	bcc     L0002
	inc     _temp5+1
;
; temp_x = (char)temp5; // low byte
;
L0002:	lda     _temp5
	sta     _temp_x
;
; temp_room = temp5 >> 8; // high byte
;
	lda     _temp5+1
	sta     _temp_room
;
; temp_y = ENTITY1.y + ENTITY1.height;
;
	lda     _ENTITY1+1
	clc
	adc     _ENTITY1+3
	sta     _temp_y
;
; temp_y += 2;
;
	lda     #$02
	clc
	adc     _temp_y
	sta     _temp_y
;
; if (bg_collision_sub() & (COLLISION_SOLID | COLLISION_PLATFORM)) return 1;
;
	jsr     _bg_collision_sub
	and     #$60
	beq     L0008
	ldx     #$00
	lda     #$01
	rts
;
; temp5 = ENTITY1.x + scroll_x + ENTITY1.width;
;
L0008:	lda     _ENTITY1
	clc
	adc     _scroll_x
	pha
	lda     #$00
	adc     _scroll_x+1
	tax
	pla
	clc
	adc     _ENTITY1+2
	bcc     L0007
	inx
L0007:	sta     _temp5
	stx     _temp5+1
;
; temp5 -= 2;
;
	lda     _temp5
	sec
	sbc     #$02
	sta     _temp5
	bcs     L0004
	dec     _temp5+1
;
; temp_x = (char)temp5; // low byte
;
L0004:	lda     _temp5
	sta     _temp_x
;
; temp_room = temp5 >> 8; // high byte
;
	lda     _temp5+1
	sta     _temp_room
;
; if (bg_collision_sub() & (COLLISION_SOLID | COLLISION_PLATFORM)) return 1;
;
	jsr     _bg_collision_sub
	ldx     #$00
	and     #$60
	beq     L000A
	lda     #$01
	rts
;
; }
;
L000A:	rts

.endproc

; ---------------------------------------------------------------
; void __near__ fire_turd (void)
; ---------------------------------------------------------------

.segment	"CODE"

.proc	_fire_turd: near

.segment	"CODE"

;
; for(index = 0; index < MAX_TURDS; ++index) {
;
	lda     #$00
	sta     _index
L003F:	lda     _index
	cmp     #$04
	bcc     L0048
;
; }
;
	rts
;
; if (!turd_active[index]) {
;
L0048:	ldy     _index
	lda     _turd_active,y
	jne     L0046
;
; turd_active[index] = 1;
;
	ldy     _index
	lda     #$01
	sta     _turd_active,y
;
; if (direction == LEFT) {
;
	lda     _direction
	bne     L0009
;
; turd_x[index] = high_byte(NINJA.x) - 4; // Slightly in front when facing left
;
	lda     #<(_turd_x)
	ldx     #>(_turd_x)
	clc
	adc     _index
	bcc     L000A
	inx
L000A:	sta     ptr1
	stx     ptr1+1
	lda     _NINJA+1
	sec
	sbc     #$04
;
; } else {
;
	jmp     L0047
;
; turd_x[index] = high_byte(NINJA.x) + 12; // Slightly in front when facing right
;
L0009:	lda     #<(_turd_x)
	ldx     #>(_turd_x)
	clc
	adc     _index
	bcc     L000D
	inx
L000D:	sta     ptr1
	stx     ptr1+1
	lda     _NINJA+1
	clc
	adc     #$0C
L0047:	ldy     #$00
	sta     (ptr1),y
;
; turd_y[index] = high_byte(NINJA.y) - 2; // From upper body
;
	lda     #<(_turd_y)
	ldx     #>(_turd_y)
	clc
	adc     _index
	bcc     L000F
	inx
L000F:	sta     ptr1
	stx     ptr1+1
	lda     _NINJA+3
	sec
	sbc     #$02
	sta     (ptr1),y
;
; if (pad1 & PAD_UP) {
;
	lda     _pad1
	and     #$08
	beq     L0042
;
; if (pad1 & PAD_RIGHT) {
;
	lda     _pad1
	and     #$01
	beq     L0040
;
; turd_direction[index] = TURD_UP;
;
	ldy     _index
	lda     #$02
	sta     _turd_direction,y
;
; turd_vel_x[index] = 3; // Right movement
;
	ldy     _index
	lda     #$03
	sta     _turd_vel_x,y
;
; turd_vel_y[index] = -7; // Upward velocity
;
	ldy     _index
	lda     #$F9
;
; else if (pad1 & PAD_LEFT) {
;
	jmp     L003E
L0040:	lda     _pad1
	and     #$02
	beq     L0017
;
; turd_direction[index] = TURD_UP;
;
	ldy     _index
	lda     #$02
	sta     _turd_direction,y
;
; turd_vel_x[index] = -3; // Left movement
;
	ldy     _index
	lda     #$FD
	sta     _turd_vel_x,y
;
; turd_vel_y[index] = -7; // Upward velocity
;
	ldy     _index
	lda     #$F9
;
; else {
;
	jmp     L003E
;
; turd_direction[index] = TURD_UP;
;
L0017:	ldy     _index
	lda     #$02
	sta     _turd_direction,y
;
; turd_vel_x[index] = (direction == LEFT) ? -1 : 1; // Slight horizontal movement
;
	lda     #<(_turd_vel_x)
	ldx     #>(_turd_vel_x)
	clc
	adc     _index
	bcc     L001D
	inx
L001D:	sta     ptr1
	stx     ptr1+1
	lda     _direction
	bne     L0041
	lda     #$FF
	jmp     L001F
L0041:	lda     #$01
L001F:	cmp     #$80
	ldy     #$00
	sta     (ptr1),y
;
; turd_vel_y[index] = -7; // Faster upward velocity
;
	ldy     _index
	lda     #$F9
;
; else if (pad1 & PAD_DOWN) {
;
	jmp     L003E
L0042:	lda     _pad1
	and     #$04
	beq     L0045
;
; if (pad1 & PAD_RIGHT) {
;
	lda     _pad1
	and     #$01
	beq     L0043
;
; turd_direction[index] = TURD_DOWN;
;
	ldy     _index
	lda     #$03
	sta     _turd_direction,y
;
; turd_vel_x[index] = 3; // Right movement
;
	ldy     _index
	sta     _turd_vel_x,y
;
; else if (pad1 & PAD_LEFT) {
;
	jmp     L003E
L0043:	lda     _pad1
	and     #$02
	beq     L0029
;
; turd_direction[index] = TURD_DOWN;
;
	ldy     _index
	lda     #$03
	sta     _turd_direction,y
;
; turd_vel_x[index] = -3; // Left movement
;
	ldy     _index
	lda     #$FD
	sta     _turd_vel_x,y
;
; turd_vel_y[index] = 3; // Downward velocity
;
	ldy     _index
	lda     #$03
;
; else {
;
	jmp     L003E
;
; turd_direction[index] = TURD_DOWN;
;
L0029:	ldy     _index
	lda     #$03
	sta     _turd_direction,y
;
; turd_vel_x[index] = (direction == LEFT) ? -1 : 1; // Slight horizontal movement
;
	lda     #<(_turd_vel_x)
	ldx     #>(_turd_vel_x)
	clc
	adc     _index
	bcc     L002F
	inx
L002F:	sta     ptr1
	stx     ptr1+1
	lda     _direction
	bne     L0044
	lda     #$FF
	jmp     L0031
L0044:	lda     #$01
L0031:	cmp     #$80
	ldy     #$00
	sta     (ptr1),y
;
; turd_vel_y[index] = 3; // Downward velocity
;
	ldy     _index
	lda     #$03
;
; else if (direction == LEFT) {
;
	jmp     L003E
L0045:	lda     _direction
	bne     L0035
;
; turd_direction[index] = TURD_LEFT;
;
	ldy     _index
	lda     #$01
	sta     _turd_direction,y
;
; turd_vel_x[index] = -3; // Horizontal speed
;
	ldy     _index
	lda     #$FD
	sta     _turd_vel_x,y
;
; turd_vel_y[index] = -3; // Slight initial upward arc
;
	ldy     _index
;
; else { // RIGHT
;
	jmp     L003E
;
; turd_direction[index] = TURD_RIGHT;
;
L0035:	ldy     _index
	lda     #$00
	sta     _turd_direction,y
;
; turd_vel_x[index] = 3; // Horizontal speed
;
	ldy     _index
	lda     #$03
	sta     _turd_vel_x,y
;
; turd_vel_y[index] = -3; // Slight initial upward arc
;
	ldy     _index
	lda     #$FD
L003E:	sta     _turd_vel_y,y
;
; sfx_play(SFX_NOISE, 0); // Play sound effect
;
	lda     #$02
	jsr     pusha
	lda     #$00
	jmp     _sfx_play
;
; for(index = 0; index < MAX_TURDS; ++index) {
;
L0046:	inc     _index
	jmp     L003F

.endproc

; ---------------------------------------------------------------
; void __near__ update_turds (void)
; ---------------------------------------------------------------

.segment	"CODE"

.proc	_update_turds: near

.segment	"CODE"

;
; for(index = 0; index < MAX_TURDS; ++index) {
;
	lda     #$00
	sta     _index
L0036:	lda     _index
	cmp     #$04
	bcc     L0041
;
; }
;
	rts
;
; if (turd_active[index]) {
;
L0041:	ldy     _index
	lda     _turd_active,y
	jeq     L0040
;
; turd_x[index] += turd_vel_x[index];
;
	lda     #<(_turd_x)
	ldx     #>(_turd_x)
	clc
	adc     _index
	bcc     L0008
	inx
L0008:	sta     ptr2
	stx     ptr2+1
	sta     ptr1
	stx     ptr1+1
	ldy     #$00
	lda     (ptr1),y
	sta     sreg
	lda     #<(_turd_vel_x)
	ldx     #>(_turd_vel_x)
	clc
	adc     _index
	bcc     L0037
	inx
L0037:	jsr     ldaidx
	clc
	adc     sreg
	sta     (ptr2),y
;
; turd_y[index] += turd_vel_y[index];
;
	lda     #<(_turd_y)
	ldx     #>(_turd_y)
	clc
	adc     _index
	bcc     L000A
	inx
L000A:	sta     ptr2
	stx     ptr2+1
	sta     ptr1
	stx     ptr1+1
	lda     (ptr1),y
	sta     sreg
	lda     #<(_turd_vel_y)
	ldx     #>(_turd_vel_y)
	clc
	adc     _index
	bcc     L0038
	inx
L0038:	jsr     ldaidx
	clc
	adc     sreg
	sta     (ptr2),y
;
; turd_vel_y[index] += 1; // Integer gravity
;
	lda     #<(_turd_vel_y)
	ldx     #>(_turd_vel_y)
	clc
	adc     _index
	bcc     L000C
	inx
L000C:	sta     sreg
	stx     sreg+1
	jsr     ldaidx
	clc
	adc     #$01
	sta     (sreg),y
;
; if (turd_vel_y[index] > 5) {
;
	lda     #<(_turd_vel_y)
	ldx     #>(_turd_vel_y)
	clc
	adc     _index
	bcc     L0039
	inx
L0039:	jsr     ldaidx
	sec
	sbc     #$06
	bvs     L000F
	eor     #$80
L000F:	bpl     L000D
;
; turd_vel_y[index] = 5;
;
	ldy     _index
	lda     #$05
	sta     _turd_vel_y,y
;
; if (turd_x[index] > 250 || turd_y[index] > 240 || turd_x[index] < 5 || turd_y[index] < 5) {
;
L000D:	ldy     _index
	lda     _turd_x,y
	cmp     #$FB
	bcs     L003A
	ldy     _index
	lda     _turd_y,y
	cmp     #$F1
	bcs     L003A
	ldy     _index
	lda     _turd_x,y
	cmp     #$05
	bcc     L003A
	ldy     _index
	lda     _turd_y,y
	cmp     #$05
	bcs     L0011
;
; turd_active[index] = 0;
;
L003A:	ldy     _index
	lda     #$00
	sta     _turd_active,y
;
; continue;
;
	jmp     L0040
;
; ENTITY1.x = turd_x[index];
;
L0011:	ldy     _index
	lda     _turd_x,y
	sta     _ENTITY1
;
; ENTITY1.y = turd_y[index];
;
	ldy     _index
	lda     _turd_y,y
	sta     _ENTITY1+1
;
; ENTITY1.width = TURD_WIDTH;
;
	lda     #$07
	sta     _ENTITY1+2
;
; ENTITY1.height = TURD_HEIGHT;
;
	sta     _ENTITY1+3
;
; if (bg_coll_D()) {
;
	jsr     _bg_coll_D
	tax
	beq     L003C
;
; turd_active[index] = 0;
;
	ldy     _index
	lda     #$00
	sta     _turd_active,y
;
; continue;
;
	jmp     L0040
;
; for (index2 = 0; index2 < MAX_ENEMY; ++index2) {
;
L003C:	sta     _index2
L003D:	lda     _index2
	cmp     #$10
	jcs     L0040
;
; if (enemy_active[index2]) {
;
	ldy     _index2
	lda     _enemy_active,y
	jeq     L003F
;
; ENTITY2.x = enemy_x[index2];
;
	ldy     _index2
	lda     _enemy_x,y
	sta     _ENTITY2
;
; ENTITY2.y = enemy_y[index2];
;
	ldy     _index2
	lda     _enemy_y,y
	sta     _ENTITY2+1
;
; if (enemy_type[index2] == ENEMY_BOSS1) {
;
	ldy     _index2
	lda     _enemy_type,y
	cmp     #$10
	bne     L003E
;
; ENTITY2.width = 28;  // 32 pixels - 4 pixels for safety
;
	lda     #$1C
	sta     _ENTITY2+2
;
; ENTITY2.height = 28; // 32 pixels - 4 pixels for safety
;
	sta     _ENTITY2+3
;
; if (check_collision(&ENTITY1, &ENTITY2)) {
;
	lda     #<(_ENTITY1)
	ldx     #>(_ENTITY1)
	jsr     pushax
	lda     #<(_ENTITY2)
	ldx     #>(_ENTITY2)
	jsr     _check_collision
	tax
	jeq     L003F
;
; if (corn_mode) {
;
	lda     _corn_mode
	beq     L0028
;
; boss_health -= BOSS_DAMAGE_PER_HIT * CORN_DAMAGE_MULTIPLIER;
;
	lda     _boss_health
	sec
	sbc     #$06
;
; } else {
;
	jmp     L0035
;
; boss_health -= BOSS_DAMAGE_PER_HIT;
;
L0028:	lda     _boss_health
	sec
	sbc     #$02
L0035:	sta     _boss_health
;
; turd_active[index] = 0;
;
	ldy     _index
	lda     #$00
	sta     _turd_active,y
;
; sfx_play(SFX_DING, 0); // Play hit sound
;
	lda     #$01
	jsr     pusha
	lda     #$00
	jsr     _sfx_play
;
; if (boss_health <= 0) {
;
	lda     _boss_health
	bne     L0040
;
; enemy_y[index2] = TURN_OFF;
;
	ldy     _index2
	lda     #$FF
	sta     _enemy_y,y
;
; enemy_active[index2] = 0;
;
	ldy     _index2
	lda     #$00
	sta     _enemy_active,y
;
; ++level_up; // Advance to next level
;
	inc     _level_up
;
; break;
;
	jmp     L0040
;
; ENTITY2.width = ENEMY_WIDTH;
;
L003E:	lda     #$0D
	sta     _ENTITY2+2
;
; ENTITY2.height = ENEMY_HEIGHT;
;
	sta     _ENTITY2+3
;
; if (check_collision(&ENTITY1, &ENTITY2)) {
;
	lda     #<(_ENTITY1)
	ldx     #>(_ENTITY1)
	jsr     pushax
	lda     #<(_ENTITY2)
	ldx     #>(_ENTITY2)
	jsr     _check_collision
	tax
	beq     L003F
;
; enemy_y[index2] = TURN_OFF;
;
	ldy     _index2
	lda     #$FF
	sta     _enemy_y,y
;
; enemy_active[index2] = 0;
;
	ldy     _index2
	lda     #$00
	sta     _enemy_active,y
;
; turd_active[index] = 0;
;
	ldy     _index
	sta     _turd_active,y
;
; sfx_play(SFX_DING, 0); // Play hit sound
;
	lda     #$01
	jsr     pusha
	lda     #$00
	jsr     _sfx_play
;
; break;
;
	jmp     L0040
;
; for (index2 = 0; index2 < MAX_ENEMY; ++index2) {
;
L003F:	inc     _index2
	jmp     L003D
;
; for(index = 0; index < MAX_TURDS; ++index) {
;
L0040:	inc     _index
	jmp     L0036

.endproc

; ---------------------------------------------------------------
; void __near__ draw_turds (void)
; ---------------------------------------------------------------

.segment	"CODE"

.proc	_draw_turds: near

.segment	"CODE"

;
; for(index = 0; index < MAX_TURDS; ++index) {
;
	lda     #$00
	sta     _index
L000F:	lda     _index
	cmp     #$04
	bcs     L0003
;
; if (turd_active[index]) {
;
	ldy     _index
	lda     _turd_active,y
	beq     L0010
;
; if (corn_mode) {
;
	lda     _corn_mode
	beq     L0008
;
; oam_meta_spr(turd_x[index], turd_y[index], CoinSpr);
;
	jsr     decsp2
	ldy     _index
	lda     _turd_x,y
	ldy     #$01
	sta     (sp),y
	ldy     _index
	lda     _turd_y,y
	ldy     #$00
	sta     (sp),y
	lda     #<(_CoinSpr)
	ldx     #>(_CoinSpr)
;
; } else {
;
	jmp     L000E
;
; oam_meta_spr(turd_x[index], turd_y[index], TurdSpr);
;
L0008:	jsr     decsp2
	ldy     _index
	lda     _turd_x,y
	ldy     #$01
	sta     (sp),y
	ldy     _index
	lda     _turd_y,y
	ldy     #$00
	sta     (sp),y
	lda     #<(_TurdSpr)
	ldx     #>(_TurdSpr)
L000E:	jsr     _oam_meta_spr
;
; for(index = 0; index < MAX_TURDS; ++index) {
;
L0010:	inc     _index
	jmp     L000F
;
; }
;
L0003:	rts

.endproc

; ---------------------------------------------------------------
; void __near__ fire_enemy_bullet (unsigned char enemy_index, unsigned char bullet_type)
; ---------------------------------------------------------------

.segment	"CODE"

.proc	_fire_enemy_bullet: near

.segment	"CODE"

;
; void fire_enemy_bullet(unsigned char enemy_index, unsigned char bullet_type) {
;
	jsr     pusha
;
; char slots_found = 0;
;
	lda     #$00
	jsr     pusha
;
; char first_slot = -1;
;
	lda     #$FF
	jsr     pusha
;
; for(index = 0; index < MAX_ENEMY_BULLETS; ++index) {
;
	lda     #$00
	sta     _index
L0023:	lda     _index
	cmp     #$08
	jcs     L0003
;
; if (!enemy_bullet_active[index]) {
;
	ldy     _index
	lda     _enemy_bullet_active,y
	jne     L0024
;
; if (slots_found == 0) {
;
	ldy     #$01
	lda     (sp),y
	bne     L0008
;
; first_slot = index;
;
	lda     _index
	dey
	sta     (sp),y
;
; enemy_bullet_active[index] = 1;
;
L0008:	ldy     _index
	lda     #$01
	sta     _enemy_bullet_active,y
;
; enemy_bullet_type[index] = bullet_type;
;
	ldy     #$02
	lda     (sp),y
	ldy     _index
	sta     _enemy_bullet_type,y
;
; if (enemy_x[enemy_index] > ENTITY2.x) {
;
	ldy     #$03
	lda     (sp),y
	tay
	lda     _enemy_x,y
	cmp     _ENTITY2
	bcc     L000B
	beq     L000B
;
; enemy_bullet_x[index] = enemy_x[enemy_index] - 4;
;
	lda     #<(_enemy_bullet_x)
	ldx     #>(_enemy_bullet_x)
	clc
	adc     _index
	bcc     L000D
	inx
L000D:	sta     ptr1
	stx     ptr1+1
	ldy     #$03
	lda     (sp),y
	tay
	lda     _enemy_x,y
	sec
	sbc     #$04
	ldy     #$00
	sta     (ptr1),y
;
; enemy_bullet_vel_x[index] = -3; // Same speed as ninja's turds
;
	ldy     _index
	lda     #$FD
;
; } else {
;
	jmp     L0021
;
; enemy_bullet_x[index] = enemy_x[enemy_index] + 28;
;
L000B:	lda     #<(_enemy_bullet_x)
	ldx     #>(_enemy_bullet_x)
	clc
	adc     _index
	bcc     L0012
	inx
L0012:	sta     ptr1
	stx     ptr1+1
	ldy     #$03
	lda     (sp),y
	tay
	lda     _enemy_x,y
	clc
	adc     #$1C
	ldy     #$00
	sta     (ptr1),y
;
; enemy_bullet_vel_x[index] = 3; // Same speed as ninja's turds
;
	ldy     _index
	lda     #$03
L0021:	sta     _enemy_bullet_vel_x,y
;
; enemy_bullet_y[index] = enemy_y[enemy_index] + 16; // From middle of boss
;
	lda     #<(_enemy_bullet_y)
	ldx     #>(_enemy_bullet_y)
	clc
	adc     _index
	bcc     L0016
	inx
L0016:	sta     ptr1
	stx     ptr1+1
	ldy     #$03
	lda     (sp),y
	tay
	lda     _enemy_y,y
	clc
	adc     #$10
	ldy     #$00
	sta     (ptr1),y
;
; if (slots_found == 0) {
;
	iny
	lda     (sp),y
	bne     L0019
;
; enemy_bullet_vel_y[index] = -8; // Higher arc than ninja's turds
;
	ldy     _index
	lda     #$F8
;
; } else {
;
	jmp     L0022
;
; enemy_bullet_vel_y[index] = -6; // Similar to ninja's turds
;
L0019:	ldy     _index
	lda     #$FA
L0022:	sta     _enemy_bullet_vel_y,y
;
; ++slots_found;
;
	ldy     #$01
	clc
	tya
	adc     (sp),y
	sta     (sp),y
;
; if (slots_found >= 2) {
;
	cmp     #$02
	bcc     L0024
;
; enemy_bullet_cooldown[enemy_index] = ENEMY_BULLET_COOLDOWN;
;
	ldy     #$03
	lda     (sp),y
	tay
	lda     #$5A
	sta     _enemy_bullet_cooldown,y
;
; sfx_play(SFX_NOISE, 0);
;
	lda     #$02
	jsr     pusha
	lda     #$00
	jsr     _sfx_play
;
; break;
;
	jmp     L0003
;
; for(index = 0; index < MAX_ENEMY_BULLETS; ++index) {
;
L0024:	inc     _index
	jmp     L0023
;
; if (slots_found == 1) {
;
L0003:	ldy     #$01
	lda     (sp),y
	cmp     #$01
	bne     L001F
;
; enemy_bullet_cooldown[enemy_index] = ENEMY_BULLET_COOLDOWN;
;
	ldy     #$03
	lda     (sp),y
	tay
	lda     #$5A
	sta     _enemy_bullet_cooldown,y
;
; sfx_play(SFX_NOISE, 0);
;
	lda     #$02
	jsr     pusha
	lda     #$00
	jsr     _sfx_play
;
; }
;
L001F:	jmp     incsp4

.endproc

; ---------------------------------------------------------------
; void __near__ update_enemy_bullets (void)
; ---------------------------------------------------------------

.segment	"CODE"

.proc	_update_enemy_bullets: near

.segment	"CODE"

;
; for (i = 0; i < MAX_ENEMY_BULLETS; i++) {
;
	jsr     decsp1
	lda     #$00
	tay
L0023:	sta     (sp),y
	cmp     #$08
	jcs     L0003
;
; if (enemy_bullet_active[i]) {
;
	lda     (sp),y
	tay
	lda     _enemy_bullet_active,y
	jeq     L0004
;
; enemy_bullet_x[i] += enemy_bullet_vel_x[i];
;
	lda     #<(_enemy_bullet_x)
	ldx     #>(_enemy_bullet_x)
	ldy     #$00
	clc
	adc     (sp),y
	bcc     L0008
	inx
L0008:	sta     ptr2
	stx     ptr2+1
	sta     ptr1
	stx     ptr1+1
	lda     (ptr1),y
	sta     sreg
	lda     #<(_enemy_bullet_vel_x)
	ldx     #>(_enemy_bullet_vel_x)
	clc
	adc     (sp),y
	bcc     L0024
	inx
L0024:	jsr     ldaidx
	clc
	adc     sreg
	sta     (ptr2),y
;
; enemy_bullet_y[i] += enemy_bullet_vel_y[i];
;
	lda     #<(_enemy_bullet_y)
	ldx     #>(_enemy_bullet_y)
	clc
	adc     (sp),y
	bcc     L000A
	inx
L000A:	sta     ptr2
	stx     ptr2+1
	sta     ptr1
	stx     ptr1+1
	lda     (ptr1),y
	sta     sreg
	lda     #<(_enemy_bullet_vel_y)
	ldx     #>(_enemy_bullet_vel_y)
	clc
	adc     (sp),y
	bcc     L0025
	inx
L0025:	jsr     ldaidx
	clc
	adc     sreg
	sta     (ptr2),y
;
; enemy_bullet_vel_y[i] += 1;
;
	lda     #<(_enemy_bullet_vel_y)
	ldx     #>(_enemy_bullet_vel_y)
	clc
	adc     (sp),y
	bcc     L000C
	inx
L000C:	sta     sreg
	stx     sreg+1
	jsr     ldaidx
	clc
	adc     #$01
	sta     (sreg),y
;
; if (enemy_bullet_vel_y[i] > 5) {
;
	lda     #<(_enemy_bullet_vel_y)
	ldx     #>(_enemy_bullet_vel_y)
	clc
	adc     (sp),y
	bcc     L0026
	inx
L0026:	jsr     ldaidx
	sec
	sbc     #$06
	bvs     L000F
	eor     #$80
L000F:	bpl     L0027
;
; enemy_bullet_vel_y[i] = 5;
;
	lda     (sp),y
	tay
	lda     #$05
	sta     _enemy_bullet_vel_y,y
;
; ENTITY1.x = enemy_bullet_x[i];
;
	ldy     #$00
L0027:	lda     (sp),y
	tay
	lda     _enemy_bullet_x,y
	sta     _ENTITY1
;
; ENTITY1.y = enemy_bullet_y[i];
;
	ldy     #$00
	lda     (sp),y
	tay
	lda     _enemy_bullet_y,y
	sta     _ENTITY1+1
;
; ENTITY1.width = ENEMY_BULLET_WIDTH;
;
	lda     #$0D
	sta     _ENTITY1+2
;
; ENTITY1.height = ENEMY_BULLET_HEIGHT;
;
	lda     #$0B
	sta     _ENTITY1+3
;
; if (bg_coll_D()) {
;
	jsr     _bg_coll_D
	tax
;
; continue;
;
	bne     L001D
;
; if (enemy_bullet_y[i] >= 0xf0 || enemy_bullet_x[i] < 5 || enemy_bullet_x[i] > 250) {
;
	lda     (sp,x)
	tay
	lda     _enemy_bullet_y,y
	cmp     #$F0
	bcs     L001D
	lda     (sp,x)
	tay
	lda     _enemy_bullet_x,y
	cmp     #$05
	bcc     L001D
	lda     (sp,x)
	tay
	lda     _enemy_bullet_x,y
	cmp     #$FB
;
; continue;
;
	bcs     L001D
;
; ENTITY2.x = high_byte(NINJA.x);
;
	lda     _NINJA+1
	sta     _ENTITY2
;
; ENTITY2.y = high_byte(NINJA.y);
;
	lda     _NINJA+3
	sta     _ENTITY2+1
;
; ENTITY2.width = HERO_WIDTH;
;
	lda     #$0D
	sta     _ENTITY2+2
;
; ENTITY2.height = HERO_HEIGHT;
;
	lda     #$0B
	sta     _ENTITY2+3
;
; if (check_collision(&ENTITY1, &ENTITY2)) {
;
	lda     #<(_ENTITY1)
	ldx     #>(_ENTITY1)
	jsr     pushax
	lda     #<(_ENTITY2)
	ldx     #>(_ENTITY2)
	jsr     _check_collision
	tax
	beq     L0004
;
; if (damage_cooldown == 0) {
;
	lda     _damage_cooldown
	bne     L001D
;
; player_health -= 2;
;
	lda     _player_health
	sec
	sbc     #$02
	sta     _player_health
;
; damage_cooldown = DAMAGE_COOLDOWN_TIME;
;
	lda     #$3C
	sta     _damage_cooldown
;
; sfx_play(SFX_NOISE, 0);
;
	lda     #$02
	jsr     pusha
	lda     #$00
	jsr     _sfx_play
;
; if (player_health <= 0) {
;
	lda     _player_health
	bne     L001D
;
; death = 1;
;
	lda     #$01
	sta     _death
;
; enemy_bullet_active[i] = 0;
;
L001D:	ldy     #$00
	lda     (sp),y
	tay
	lda     #$00
	sta     _enemy_bullet_active,y
;
; for (i = 0; i < MAX_ENEMY_BULLETS; i++) {
;
L0004:	tay
	clc
	lda     #$01
	adc     (sp),y
	jmp     L0023
;
; }
;
L0003:	jmp     incsp1

.endproc

; ---------------------------------------------------------------
; void __near__ draw_enemy_bullets (void)
; ---------------------------------------------------------------

.segment	"CODE"

.proc	_draw_enemy_bullets: near

.segment	"CODE"

;
; for(index = 0; index < MAX_ENEMY_BULLETS; ++index) {
;
	lda     #$00
	sta     _index
L000A:	lda     _index
	cmp     #$08
	bcs     L0003
;
; if (enemy_bullet_active[index]) {
;
	ldy     _index
	lda     _enemy_bullet_active,y
	beq     L000B
;
; oam_meta_spr(enemy_bullet_x[index], enemy_bullet_y[index], TurdSpr);
;
	jsr     decsp2
	ldy     _index
	lda     _enemy_bullet_x,y
	ldy     #$01
	sta     (sp),y
	ldy     _index
	lda     _enemy_bullet_y,y
	ldy     #$00
	sta     (sp),y
	lda     #<(_TurdSpr)
	ldx     #>(_TurdSpr)
	jsr     _oam_meta_spr
;
; for(index = 0; index < MAX_ENEMY_BULLETS; ++index) {
;
L000B:	inc     _index
	jmp     L000A
;
; }
;
L0003:	rts

.endproc

; ---------------------------------------------------------------
; void __near__ main (void)
; ---------------------------------------------------------------

.segment	"CODE"

.proc	_main: near

.segment	"CODE"

;
; ppu_off(); // screen off
;
	jsr     _ppu_off
;
; mmc1_init();
;
	jsr     _mmc1_init
;
; set_vram_buffer(); // do at least once
;
	jsr     _set_vram_buffer
;
; load_title();
;
	jsr     _load_title
;
; bank_spr(1);
;
	lda     #$01
	jsr     _bank_spr
;
; ppu_on_all(); // turn on screen
;
	jsr     _ppu_on_all
;
; scroll_x = 0;
;
	ldx     #$00
	txa
	sta     _scroll_x
	sta     _scroll_x+1
;
; set_scroll_x(scroll_x);
;
	jsr     _set_scroll_x
;
; has_turd_power = 1; // Default to having turd power
;
	lda     #$01
	sta     _has_turd_power
;
; turd_cooldown = 0;
;
	lda     #$00
	sta     _turd_cooldown
;
; player_health = MAX_HEALTH; // Initialize player health
;
	lda     #$0A
	sta     _player_health
;
; damage_cooldown = 0;
;
	lda     #$00
	sta     _damage_cooldown
;
; boss_health = BOSS_MAX_HEALTH; // Initialize boss health
;
	lda     #$14
	sta     _boss_health
;
; corn_mode = 0; // Initialize to turd mode
;
	lda     #$00
	sta     _corn_mode
;
; direction = RIGHT; // Initialize direction to face right
;
	lda     #$01
	sta     _direction
;
; for (index = 0; index < MAX_TURDS; ++index) {
;
	lda     #$00
	sta     _index
L003C:	lda     _index
	cmp     #$04
	bcs     L003D
;
; turd_active[index] = 0;
;
	ldy     _index
	lda     #$00
	sta     _turd_active,y
;
; for (index = 0; index < MAX_TURDS; ++index) {
;
	inc     _index
	jmp     L003C
;
; NINJA.health = MAX_HEALTH;
;
L003D:	lda     #$0A
	sta     _NINJA+8
;
; NINJA.invincible = 0;
;
	lda     #$00
	sta     _NINJA+9
;
; while (game_mode == MODE_TITLE) {
;
	jmp     L0042
;
; ppu_wait_nmi();
;
L000A:	jsr     _ppu_wait_nmi
;
; temp1 = get_frame_count();
;
	jsr     _get_frame_count
	sta     _temp1
;
; temp1 = (temp1 >> 3) & 3;
;
	lsr     a
	lsr     a
	lsr     a
	and     #$03
	sta     _temp1
;
; pal_col(3,title_color_rotate[temp1]);
;
	lda     #$03
	jsr     pusha
	ldy     _temp1
	lda     _title_color_rotate,y
	jsr     _pal_col
;
; pad1 = pad_poll(0); // read the first controller
;
	lda     #$00
	jsr     _pad_poll
	sta     _pad1
;
; pad1_new = get_pad_new(0);
;
	lda     #$00
	jsr     _get_pad_new
	sta     _pad1_new
;
; if (pad1_new & PAD_START) {
;
	and     #$10
	jeq     L0042
;
; pal_fade_to(4,0); // fade to black
;
	lda     #$04
	jsr     pusha
	lda     #$00
	jsr     _pal_fade_to
;
; ppu_off();
;
	jsr     _ppu_off
;
; oam_clear();
;
	jsr     _oam_clear
;
; clear_vram_buffer();
;
	jsr     _clear_vram_buffer
;
; mmc1_write(MMC1_CONTROL, 0x12);  // 4KB CHR mode
;
	ldx     #$80
	lda     #$00
	jsr     pushax
	lda     #$12
	jsr     _mmc1_write
;
; mmc1_write(MMC1_CHR0, CHR_BANK_MAP);     // Pattern Table 0 (background)
;
	ldx     #$A0
	lda     #$00
	jsr     pushax
	lda     #$02
	jsr     _mmc1_write
;
; mmc1_write(MMC1_CHR1, CHR_BANK_SPRITES); // Pattern Table 1 (sprites)
;
	ldx     #$C0
	lda     #$00
	jsr     pushax
	lda     #$03
	jsr     _mmc1_write
;
; bank_spr(1);
;
	lda     #$01
	jsr     _bank_spr
;
; load_room();
;
	jsr     _load_room
;
; game_mode = MODE_GAME;
;
	lda     #$01
	sta     _game_mode
;
; pal_bg(palette_bg);
;
	lda     #<(_palette_bg)
	ldx     #>(_palette_bg)
	jsr     _pal_bg
;
; song = SONG_GAME;
;
	lda     #$00
	sta     _song
;
; music_play(song);
;
	jsr     _music_play
;
; scroll_x = 0;
;
	ldx     #$00
	txa
	sta     _scroll_x
	sta     _scroll_x+1
;
; set_scroll_x(scroll_x);
;
	jsr     _set_scroll_x
;
; check_spr_objects();
;
	jsr     _check_spr_objects
;
; draw_sprites();
;
	jsr     _draw_sprites
;
; pal_bright(0);
;
	lda     #$00
	jsr     _pal_bright
;
; ppu_on_all();
;
	jsr     _ppu_on_all
;
; if (level == 0) {
;
	lda     _level
	bne     L0041
;
; for (temp1 = 0; temp1 < 8; ++temp1) {
;
	sta     _temp1
L003E:	lda     _temp1
	cmp     #$08
	bcs     L003F
;
; ppu_wait_nmi();
;
	jsr     _ppu_wait_nmi
;
; for (temp1 = 0; temp1 < 8; ++temp1) {
;
	inc     _temp1
	jmp     L003E
;
; for (bright = 0; bright < 5; ++bright) {
;
L003F:	lda     #$00
	sta     _bright
L0040:	lda     _bright
	cmp     #$05
	bcs     L0042
;
; pal_bright(bright);
;
	jsr     _pal_bright
;
; for (bright = 0; bright < 5; ++bright) {
;
	inc     _bright
	jmp     L0040
;
; pal_bright(4);
;
L0041:	lda     #$04
	jsr     _pal_bright
;
; while (game_mode == MODE_TITLE) {
;
L0042:	lda     _game_mode
	jeq     L000A
;
; while (game_mode == MODE_GAME) {
;
	jmp     L0043
;
; ppu_wait_nmi();
;
L0019:	jsr     _ppu_wait_nmi
;
; set_music_speed(8);
;
	lda     #$08
	jsr     _set_music_speed
;
; pad1 = pad_poll(0); // read the first controller
;
	lda     #$00
	jsr     _pad_poll
	sta     _pad1
;
; pad1_new = get_pad_new(0);
;
	lda     #$00
	jsr     _get_pad_new
	sta     _pad1_new
;
; movement();
;
	jsr     _movement
;
; check_spr_objects(); // see which objects are on screen
;
	jsr     _check_spr_objects
;
; sprite_collisions();
;
	jsr     _sprite_collisions
;
; update_enemy_bullets();
;
	jsr     _update_enemy_bullets
;
; set_scroll_x(scroll_x);
;
	lda     _scroll_x
	ldx     _scroll_x+1
	jsr     _set_scroll_x
;
; set_scroll_y(scroll_y);
;
	lda     _scroll_y
	ldx     _scroll_y+1
	jsr     _set_scroll_y
;
; draw_screen_R();
;
	jsr     _draw_screen_R
;
; draw_sprites();
;
	jsr     _draw_sprites
;
; if (pad1_new & PAD_START) {
;
	lda     _pad1_new
	and     #$10
	beq     L001C
;
; game_mode = MODE_PAUSE;
;
	lda     #$02
	sta     _game_mode
;
; song = SONG_PAUSE;
;
	lda     #$01
	sta     _song
;
; music_play(song);
;
	jsr     _music_play
;
; color_emphasis(COL_EMP_DARK);
;
	lda     #$E0
	jsr     _color_emphasis
;
; break; // out of the game loop
;
	jmp     L0045
;
; if (level_up) {
;
L001C:	lda     _level_up
	beq     L001D
;
; game_mode = MODE_SWITCH;
;
	lda     #$03
	sta     _game_mode
;
; level_up = 0;
;
	lda     #$00
	sta     _level_up
;
; bright = 4;
;
	lda     #$04
	sta     _bright
;
; bright_count = 0;
;
	lda     #$00
	sta     _bright_count
;
; ++level;
;
	inc     _level
;
; else if (death) {
;
	jmp     L0043
L001D:	lda     _death
	beq     L0043
;
; death = 0;
;
	lda     #$00
	sta     _death
;
; bright = 0;
;
	sta     _bright
;
; scroll_x = 0;
;
	tax
	sta     _scroll_x
	sta     _scroll_x+1
;
; set_scroll_x(scroll_x);
;
	jsr     _set_scroll_x
;
; ppu_off();
;
	jsr     _ppu_off
;
; clear_vram_buffer();
;
	jsr     _clear_vram_buffer
;
; mmc1_write(MMC1_CONTROL, 0x12);  // 4KB CHR mode
;
	ldx     #$80
	lda     #$00
	jsr     pushax
	lda     #$12
	jsr     _mmc1_write
;
; mmc1_write(MMC1_CHR0, CHR_BANK_FONT);   // Font tiles
;
	ldx     #$A0
	lda     #$00
	jsr     pushax
	jsr     _mmc1_write
;
; mmc1_write(MMC1_CHR1, CHR_BANK_TITLE);  // Title graphics
;
	ldx     #$C0
	lda     #$00
	jsr     pushax
	lda     #$01
	jsr     _mmc1_write
;
; vram_adr(NAMETABLE_A);
;
	ldx     #$20
	lda     #$00
	jsr     _vram_adr
;
; vram_fill(0, 1024); // blank the screen
;
	lda     #$00
	jsr     pusha
	ldx     #$04
	jsr     _vram_fill
;
; pal_bg(palette_title);
;
	lda     #<(_palette_title)
	ldx     #>(_palette_title)
	jsr     _pal_bg
;
; vram_adr(NTADR_A(12,14));
;
	ldx     #$21
	lda     #$CC
	jsr     _vram_adr
;
; multi_vram_buffer_horz(DEAD_TEXT, sizeof(DEAD_TEXT), NTADR_A(12,14));
;
	jsr     decsp3
	lda     #<(_DEAD_TEXT)
	ldy     #$01
	sta     (sp),y
	iny
	lda     #>(_DEAD_TEXT)
	sta     (sp),y
	lda     #$09
	ldy     #$00
	sta     (sp),y
	ldx     #$21
	lda     #$CC
	jsr     _multi_vram_buffer_horz
;
; ppu_on_all();
;
	jsr     _ppu_on_all
;
; game_mode = MODE_GAME_OVER;
;
	lda     #$05
	sta     _game_mode
;
; while (game_mode == MODE_GAME) {
;
L0043:	lda     _game_mode
	cmp     #$01
	jeq     L0019
;
; while (game_mode == MODE_SWITCH) { 
;
	jmp     L0045
;
; ppu_wait_nmi();
;
L0020:	jsr     _ppu_wait_nmi
;
; ++bright_count;
;
	inc     _bright_count
;
; if (bright_count >= 0x10) { // fade out
;
	lda     _bright_count
	cmp     #$10
	bcc     L0024
;
; bright_count = 0;
;
	lda     #$00
	sta     _bright_count
;
; --bright;
;
	dec     _bright
;
; if (bright != 0xff) pal_bright(bright); // fade out
;
	lda     _bright
	cmp     #$FF
	beq     L0024
	jsr     _pal_bright
;
; set_scroll_x(scroll_x);
;
L0024:	lda     _scroll_x
	ldx     _scroll_x+1
	jsr     _set_scroll_x
;
; if (bright == 0xff) { // now switch rooms
;
	lda     _bright
	cmp     #$FF
	bne     L0045
;
; ppu_off();
;
	jsr     _ppu_off
;
; oam_clear();
;
	jsr     _oam_clear
;
; scroll_x = 0;
;
	ldx     #$00
	txa
	sta     _scroll_x
	sta     _scroll_x+1
;
; set_scroll_x(scroll_x);
;
	jsr     _set_scroll_x
;
; if (level < 3) {
;
	lda     _level
	cmp     #$03
	bcs     L0044
;
; load_room();
;
	jsr     _load_room
;
; game_mode = MODE_GAME;
;
	lda     #$01
	sta     _game_mode
;
; else { // set end of game. Did we win?
;
	jmp     L004C
;
; game_mode = MODE_END;
;
L0044:	lda     #$04
	sta     _game_mode
;
; vram_adr(NAMETABLE_A);
;
	ldx     #$20
	lda     #$00
	jsr     _vram_adr
;
; vram_fill(0,1024);
;
	lda     #$00
	jsr     pusha
	ldx     #$04
	jsr     _vram_fill
;
; ppu_on_all();
;
L004C:	jsr     _ppu_on_all
;
; pal_bright(4); // back to normal brighness
;
	lda     #$04
	jsr     _pal_bright
;
; while (game_mode == MODE_SWITCH) { 
;
L0045:	lda     _game_mode
	cmp     #$03
	beq     L0020
;
; while (game_mode == MODE_PAUSE) {
;
	jmp     L0046
;
; ppu_wait_nmi();
;
L0028:	jsr     _ppu_wait_nmi
;
; pad1 = pad_poll(0); // read the first controller
;
	lda     #$00
	jsr     _pad_poll
	sta     _pad1
;
; pad1_new = get_pad_new(0);
;
	lda     #$00
	jsr     _get_pad_new
	sta     _pad1_new
;
; draw_sprites();
;
	jsr     _draw_sprites
;
; if (pad1_new & PAD_START) {
;
	lda     _pad1_new
	and     #$10
	beq     L0046
;
; game_mode = MODE_GAME;
;
	lda     #$01
	sta     _game_mode
;
; song = SONG_GAME;
;
	lda     #$00
	sta     _song
;
; music_play(song);
;
	jsr     _music_play
;
; color_emphasis(COL_EMP_NORMAL);
;
	lda     #$00
	jsr     _color_emphasis
;
; while (game_mode == MODE_PAUSE) {
;
L0046:	lda     _game_mode
	cmp     #$02
	beq     L0028
;
; while (game_mode == MODE_END) {
;
	jmp     L0047
;
; ppu_wait_nmi();
;
L002C:	jsr     _ppu_wait_nmi
;
; oam_clear();
;
	jsr     _oam_clear
;
; mmc1_write(MMC1_CONTROL, 0x12);  // 4KB CHR mode
;
	ldx     #$80
	lda     #$00
	jsr     pushax
	lda     #$12
	jsr     _mmc1_write
;
; mmc1_write(MMC1_CHR0, CHR_BANK_FONT);   // Font tiles
;
	ldx     #$A0
	lda     #$00
	jsr     pushax
	jsr     _mmc1_write
;
; mmc1_write(MMC1_CHR1, CHR_BANK_TITLE);  // Title graphics
;
	ldx     #$C0
	lda     #$00
	jsr     pushax
	lda     #$01
	jsr     _mmc1_write
;
; pal_bg(palette_title);
;
	lda     #<(_palette_title)
	ldx     #>(_palette_title)
	jsr     _pal_bg
;
; multi_vram_buffer_horz(END_TEXT, sizeof(END_TEXT), NTADR_A(6,13));
;
	jsr     decsp3
	lda     #<(_END_TEXT)
	ldy     #$01
	sta     (sp),y
	iny
	lda     #>(_END_TEXT)
	sta     (sp),y
	lda     #$10
	ldy     #$00
	sta     (sp),y
	ldx     #$21
	lda     #$A6
	jsr     _multi_vram_buffer_horz
;
; multi_vram_buffer_horz(END_TEXT2, sizeof(END_TEXT2), NTADR_A(8,15));
;
	jsr     decsp3
	lda     #<(_END_TEXT2)
	ldy     #$01
	sta     (sp),y
	iny
	lda     #>(_END_TEXT2)
	sta     (sp),y
	lda     #$16
	ldy     #$00
	sta     (sp),y
	ldx     #$21
	lda     #$E8
	jsr     _multi_vram_buffer_horz
;
; multi_vram_buffer_horz(END_TEXT3, sizeof(END_TEXT3), NTADR_A(11,17));
;
	jsr     decsp3
	lda     #<(_END_TEXT3)
	ldy     #$01
	sta     (sp),y
	iny
	lda     #>(_END_TEXT3)
	sta     (sp),y
	lda     #$06
	ldy     #$00
	sta     (sp),y
	ldx     #$22
	lda     #$2B
	jsr     _multi_vram_buffer_horz
;
; temp1 = (coins / 10) + 0x10;  // Map 0-9 to 0x10-0x19 in current font bank
;
	lda     _coins
	jsr     pusha0
	lda     #$0A
	jsr     tosudiva0
	clc
	adc     #$10
	sta     _temp1
;
; temp2 = (coins % 10) + 0x10;
;
	lda     _coins
	jsr     pusha0
	lda     #$0A
	jsr     tosumoda0
	clc
	adc     #$10
	sta     _temp2
;
; one_vram_buffer(temp1, NTADR_A(18,17));
;
	lda     _temp1
	jsr     pusha
	ldx     #$22
	lda     #$32
	jsr     _one_vram_buffer
;
; one_vram_buffer(temp2, NTADR_A(19,17));
;
	lda     _temp2
	jsr     pusha
	ldx     #$22
	lda     #$33
	jsr     _one_vram_buffer
;
; set_scroll_x(0);
;
	ldx     #$00
	txa
	jsr     _set_scroll_x
;
; music_stop();
;
	jsr     _music_stop
;
; game_mode = MODE_RESET;
;
	lda     #$06
	sta     _game_mode
;
; while (game_mode == MODE_END) {
;
L0047:	lda     _game_mode
	cmp     #$04
	jeq     L002C
;
; while (game_mode == MODE_GAME_OVER) {
;
	jmp     L0048
;
; ppu_wait_nmi();
;
L0031:	jsr     _ppu_wait_nmi
;
; oam_clear();
;
	jsr     _oam_clear
;
; set_scroll_x(0);
;
	ldx     #$00
	txa
	jsr     _set_scroll_x
;
; delay(60); // Wait 1 second
;
	lda     #$3C
	jsr     _delay
;
; music_stop();
;
	jsr     _music_stop
;
; game_mode = MODE_RESET;
;
	lda     #$06
	sta     _game_mode
;
; while (game_mode == MODE_GAME_OVER) {
;
L0048:	lda     _game_mode
	cmp     #$05
	beq     L0031
;
; while (game_mode == MODE_RESET) {
;
	jmp     L004A
;
; delay(240); // 4 seconds
;
L0049:	lda     #$F0
	jsr     _delay
;
; delay(60); // 1 second
;
	lda     #$3C
	jsr     _delay
;
; ppu_wait_nmi();
;
L0037:	jsr     _ppu_wait_nmi
;
; pad1 = pad_poll(0); // read the first controller
;
	lda     #$00
	jsr     _pad_poll
	sta     _pad1
;
; pad1_new = get_pad_new(0);
;
	lda     #$00
	jsr     _get_pad_new
	sta     _pad1_new
;
; if (pad1_new & PAD_START) {
;
	and     #$10
	beq     L0037
;
; ppu_off();
;
	jsr     _ppu_off
;
; load_title();
;
	jsr     _load_title
;
; ppu_on_all();
;
	jsr     _ppu_on_all
;
; game_mode = MODE_TITLE;
;
	lda     #$00
	sta     _game_mode
;
; coins = 0;
;
	sta     _coins
;
; level = 0;
;
	sta     _level
;
; death = 0;
;
	sta     _death
;
; while (game_mode == MODE_RESET) {
;
L004A:	lda     _game_mode
	cmp     #$06
	beq     L0049
;
; while (1) {
;
	jmp     L0042

.endproc

; ---------------------------------------------------------------
; unsigned char __near__ digit_to_font_tile (unsigned char digit)
; ---------------------------------------------------------------

.segment	"CODE"

.proc	_digit_to_font_tile: near

.segment	"CODE"

;
; unsigned char digit_to_font_tile(unsigned char digit) {
;
	jsr     pusha
;
; return digit + 0x10;  // 0x10-0x19 are the number tiles in the font bank
;
	ldy     #$00
	lda     (sp),y
	clc
	adc     #$10
	ldx     #$00
;
; }
;
	jmp     incsp1

.endproc

